ARM GAS  C:\Users\SZABMT~1\AppData\Local\Temp\ccfbIl0u.s 			page 1


   1              		.syntax unified
   2              		.cpu cortex-m3
   3              		.fpu softvfp
   4              		.eabi_attribute 20, 1
   5              		.eabi_attribute 21, 1
   6              		.eabi_attribute 23, 3
   7              		.eabi_attribute 24, 1
   8              		.eabi_attribute 25, 1
   9              		.eabi_attribute 26, 1
  10              		.eabi_attribute 30, 1
  11              		.eabi_attribute 34, 1
  12              		.eabi_attribute 18, 4
  13              		.thumb
  14              		.syntax unified
  15              		.file	"ADC_SARANAL_PM.c"
  16              		.text
  17              	.Ltext0:
  18              		.cfi_sections	.debug_frame
  19              		.section	.text.ADC_SARANAL_Sleep,"ax",%progbits
  20              		.align	2
  21              		.global	ADC_SARANAL_Sleep
  22              		.thumb
  23              		.thumb_func
  24              		.type	ADC_SARANAL_Sleep, %function
  25              	ADC_SARANAL_Sleep:
  26              	.LFB0:
  27              		.file 1 "Generated_Source\\PSoC5\\ADC_SARANAL_PM.c"
   1:Generated_Source\PSoC5/ADC_SARANAL_PM.c **** /*******************************************************************************
   2:Generated_Source\PSoC5/ADC_SARANAL_PM.c **** * File Name: ADC_SARANAL_PM.c
   3:Generated_Source\PSoC5/ADC_SARANAL_PM.c **** * Version 2.10
   4:Generated_Source\PSoC5/ADC_SARANAL_PM.c **** *
   5:Generated_Source\PSoC5/ADC_SARANAL_PM.c **** * Description:
   6:Generated_Source\PSoC5/ADC_SARANAL_PM.c **** *  This file contains the setup, control and status commands to support
   7:Generated_Source\PSoC5/ADC_SARANAL_PM.c **** *  component operations in low power mode.
   8:Generated_Source\PSoC5/ADC_SARANAL_PM.c **** *
   9:Generated_Source\PSoC5/ADC_SARANAL_PM.c **** * Note:
  10:Generated_Source\PSoC5/ADC_SARANAL_PM.c **** *
  11:Generated_Source\PSoC5/ADC_SARANAL_PM.c **** ********************************************************************************
  12:Generated_Source\PSoC5/ADC_SARANAL_PM.c **** * Copyright 2012-2015, Cypress Semiconductor Corporation.  All rights reserved.
  13:Generated_Source\PSoC5/ADC_SARANAL_PM.c **** * You may use this file only in accordance with the license, terms, conditions,
  14:Generated_Source\PSoC5/ADC_SARANAL_PM.c **** * disclaimers, and limitations in the end user license agreement accompanying
  15:Generated_Source\PSoC5/ADC_SARANAL_PM.c **** * the software package with which this file was provided.
  16:Generated_Source\PSoC5/ADC_SARANAL_PM.c **** *******************************************************************************/
  17:Generated_Source\PSoC5/ADC_SARANAL_PM.c **** 
  18:Generated_Source\PSoC5/ADC_SARANAL_PM.c **** #include "ADC_SARANAL.h"
  19:Generated_Source\PSoC5/ADC_SARANAL_PM.c **** #include "ADC_SARANAL_SAR.h"
  20:Generated_Source\PSoC5/ADC_SARANAL_PM.c **** #if(ADC_SARANAL_CLOCK_SOURCE == ADC_SARANAL_CLOCK_INTERNAL)
  21:Generated_Source\PSoC5/ADC_SARANAL_PM.c ****     #include "ADC_SARANAL_IntClock.h"
  22:Generated_Source\PSoC5/ADC_SARANAL_PM.c **** #endif   /* ADC_SARANAL_CLOCK_SOURCE == ADC_SARANAL_CLOCK_INTERNAL */
  23:Generated_Source\PSoC5/ADC_SARANAL_PM.c **** 
  24:Generated_Source\PSoC5/ADC_SARANAL_PM.c **** 
  25:Generated_Source\PSoC5/ADC_SARANAL_PM.c **** /*******************************************************************************
  26:Generated_Source\PSoC5/ADC_SARANAL_PM.c **** * Function Name: ADC_SARANAL_Sleep
  27:Generated_Source\PSoC5/ADC_SARANAL_PM.c **** ********************************************************************************
  28:Generated_Source\PSoC5/ADC_SARANAL_PM.c **** *
  29:Generated_Source\PSoC5/ADC_SARANAL_PM.c **** * Summary:
  30:Generated_Source\PSoC5/ADC_SARANAL_PM.c **** *  Stops the ADC operation and saves the configuration registers and component
ARM GAS  C:\Users\SZABMT~1\AppData\Local\Temp\ccfbIl0u.s 			page 2


  31:Generated_Source\PSoC5/ADC_SARANAL_PM.c **** *  enable state. Should be called just prior to entering sleep
  32:Generated_Source\PSoC5/ADC_SARANAL_PM.c **** *
  33:Generated_Source\PSoC5/ADC_SARANAL_PM.c **** * Parameters:
  34:Generated_Source\PSoC5/ADC_SARANAL_PM.c **** *  None.
  35:Generated_Source\PSoC5/ADC_SARANAL_PM.c **** *
  36:Generated_Source\PSoC5/ADC_SARANAL_PM.c **** * Return:
  37:Generated_Source\PSoC5/ADC_SARANAL_PM.c **** *  None.
  38:Generated_Source\PSoC5/ADC_SARANAL_PM.c **** *
  39:Generated_Source\PSoC5/ADC_SARANAL_PM.c **** * Side Effects:
  40:Generated_Source\PSoC5/ADC_SARANAL_PM.c **** *  None.
  41:Generated_Source\PSoC5/ADC_SARANAL_PM.c **** *
  42:Generated_Source\PSoC5/ADC_SARANAL_PM.c **** * Reentrant:
  43:Generated_Source\PSoC5/ADC_SARANAL_PM.c **** *  No.
  44:Generated_Source\PSoC5/ADC_SARANAL_PM.c **** *
  45:Generated_Source\PSoC5/ADC_SARANAL_PM.c **** *******************************************************************************/
  46:Generated_Source\PSoC5/ADC_SARANAL_PM.c **** void ADC_SARANAL_Sleep(void)
  47:Generated_Source\PSoC5/ADC_SARANAL_PM.c **** {
  28              		.loc 1 47 0
  29              		.cfi_startproc
  30              		@ args = 0, pretend = 0, frame = 0
  31              		@ frame_needed = 0, uses_anonymous_args = 0
  32 0000 08B5     		push	{r3, lr}
  33              		.cfi_def_cfa_offset 8
  34              		.cfi_offset 3, -8
  35              		.cfi_offset 14, -4
  48:Generated_Source\PSoC5/ADC_SARANAL_PM.c ****     ADC_SARANAL_SAR_Stop();
  36              		.loc 1 48 0
  37 0002 FFF7FEFF 		bl	ADC_SARANAL_SAR_Stop
  38              	.LVL0:
  49:Generated_Source\PSoC5/ADC_SARANAL_PM.c ****     ADC_SARANAL_SAR_Sleep();
  39              		.loc 1 49 0
  40 0006 FFF7FEFF 		bl	ADC_SARANAL_SAR_Sleep
  41              	.LVL1:
  50:Generated_Source\PSoC5/ADC_SARANAL_PM.c ****     ADC_SARANAL_Disable();
  42              		.loc 1 50 0
  43 000a FFF7FEFF 		bl	ADC_SARANAL_Disable
  44              	.LVL2:
  51:Generated_Source\PSoC5/ADC_SARANAL_PM.c **** 
  52:Generated_Source\PSoC5/ADC_SARANAL_PM.c ****     #if(ADC_SARANAL_CLOCK_SOURCE == ADC_SARANAL_CLOCK_INTERNAL)
  53:Generated_Source\PSoC5/ADC_SARANAL_PM.c ****         ADC_SARANAL_IntClock_Stop();
  45              		.loc 1 53 0
  46 000e FFF7FEFF 		bl	ADC_SARANAL_IntClock_Stop
  47              	.LVL3:
  48 0012 08BD     		pop	{r3, pc}
  49              		.cfi_endproc
  50              	.LFE0:
  51              		.size	ADC_SARANAL_Sleep, .-ADC_SARANAL_Sleep
  52              		.section	.text.ADC_SARANAL_Wakeup,"ax",%progbits
  53              		.align	2
  54              		.global	ADC_SARANAL_Wakeup
  55              		.thumb
  56              		.thumb_func
  57              		.type	ADC_SARANAL_Wakeup, %function
  58              	ADC_SARANAL_Wakeup:
  59              	.LFB1:
  54:Generated_Source\PSoC5/ADC_SARANAL_PM.c ****     #endif   /* ADC_SARANAL_CLOCK_SOURCE == ADC_SARANAL_CLOCK_INTERNAL */
  55:Generated_Source\PSoC5/ADC_SARANAL_PM.c **** }
ARM GAS  C:\Users\SZABMT~1\AppData\Local\Temp\ccfbIl0u.s 			page 3


  56:Generated_Source\PSoC5/ADC_SARANAL_PM.c **** 
  57:Generated_Source\PSoC5/ADC_SARANAL_PM.c **** 
  58:Generated_Source\PSoC5/ADC_SARANAL_PM.c **** /*******************************************************************************
  59:Generated_Source\PSoC5/ADC_SARANAL_PM.c **** * Function Name: ADC_SARANAL_Wakeup
  60:Generated_Source\PSoC5/ADC_SARANAL_PM.c **** ********************************************************************************
  61:Generated_Source\PSoC5/ADC_SARANAL_PM.c **** *
  62:Generated_Source\PSoC5/ADC_SARANAL_PM.c **** * Summary:
  63:Generated_Source\PSoC5/ADC_SARANAL_PM.c **** *  Restores the component enable state and configuration registers. This should
  64:Generated_Source\PSoC5/ADC_SARANAL_PM.c **** *  be called just after awaking from sleep mode
  65:Generated_Source\PSoC5/ADC_SARANAL_PM.c **** *
  66:Generated_Source\PSoC5/ADC_SARANAL_PM.c **** * Parameters:
  67:Generated_Source\PSoC5/ADC_SARANAL_PM.c **** *  None.
  68:Generated_Source\PSoC5/ADC_SARANAL_PM.c **** *
  69:Generated_Source\PSoC5/ADC_SARANAL_PM.c **** * Return:
  70:Generated_Source\PSoC5/ADC_SARANAL_PM.c **** *  None.
  71:Generated_Source\PSoC5/ADC_SARANAL_PM.c **** *
  72:Generated_Source\PSoC5/ADC_SARANAL_PM.c **** * Side Effects:
  73:Generated_Source\PSoC5/ADC_SARANAL_PM.c **** *  None.
  74:Generated_Source\PSoC5/ADC_SARANAL_PM.c **** *
  75:Generated_Source\PSoC5/ADC_SARANAL_PM.c **** * Reentrant:
  76:Generated_Source\PSoC5/ADC_SARANAL_PM.c **** *  No.
  77:Generated_Source\PSoC5/ADC_SARANAL_PM.c **** *
  78:Generated_Source\PSoC5/ADC_SARANAL_PM.c **** *******************************************************************************/
  79:Generated_Source\PSoC5/ADC_SARANAL_PM.c **** void ADC_SARANAL_Wakeup(void)
  80:Generated_Source\PSoC5/ADC_SARANAL_PM.c **** {
  60              		.loc 1 80 0
  61              		.cfi_startproc
  62              		@ args = 0, pretend = 0, frame = 0
  63              		@ frame_needed = 0, uses_anonymous_args = 0
  64 0000 08B5     		push	{r3, lr}
  65              		.cfi_def_cfa_offset 8
  66              		.cfi_offset 3, -8
  67              		.cfi_offset 14, -4
  81:Generated_Source\PSoC5/ADC_SARANAL_PM.c ****     ADC_SARANAL_SAR_Wakeup();
  68              		.loc 1 81 0
  69 0002 FFF7FEFF 		bl	ADC_SARANAL_SAR_Wakeup
  70              	.LVL4:
  82:Generated_Source\PSoC5/ADC_SARANAL_PM.c ****     ADC_SARANAL_SAR_Enable();
  71              		.loc 1 82 0
  72 0006 FFF7FEFF 		bl	ADC_SARANAL_SAR_Enable
  73              	.LVL5:
  83:Generated_Source\PSoC5/ADC_SARANAL_PM.c **** 
  84:Generated_Source\PSoC5/ADC_SARANAL_PM.c ****     #if(ADC_SARANAL_CLOCK_SOURCE == ADC_SARANAL_CLOCK_INTERNAL)
  85:Generated_Source\PSoC5/ADC_SARANAL_PM.c ****         ADC_SARANAL_IntClock_Start();
  74              		.loc 1 85 0
  75 000a FFF7FEFF 		bl	ADC_SARANAL_IntClock_Start
  76              	.LVL6:
  86:Generated_Source\PSoC5/ADC_SARANAL_PM.c ****     #endif   /* ADC_SARANAL_CLOCK_SOURCE == ADC_SARANAL_CLOCK_INTERNAL */
  87:Generated_Source\PSoC5/ADC_SARANAL_PM.c **** 
  88:Generated_Source\PSoC5/ADC_SARANAL_PM.c ****     /* The block is ready to use 10 us after the SAR enable signal is set high. */
  89:Generated_Source\PSoC5/ADC_SARANAL_PM.c ****     CyDelayUs(10u);
  77              		.loc 1 89 0
  78 000e 0A20     		movs	r0, #10
  79 0010 FFF7FEFF 		bl	CyDelayUs
  80              	.LVL7:
  90:Generated_Source\PSoC5/ADC_SARANAL_PM.c ****     
  91:Generated_Source\PSoC5/ADC_SARANAL_PM.c ****     ADC_SARANAL_Enable();
ARM GAS  C:\Users\SZABMT~1\AppData\Local\Temp\ccfbIl0u.s 			page 4


  81              		.loc 1 91 0
  82 0014 FFF7FEFF 		bl	ADC_SARANAL_Enable
  83              	.LVL8:
  92:Generated_Source\PSoC5/ADC_SARANAL_PM.c **** 
  93:Generated_Source\PSoC5/ADC_SARANAL_PM.c ****     #if(ADC_SARANAL_SAMPLE_MODE == ADC_SARANAL_SAMPLE_MODE_FREE_RUNNING)
  94:Generated_Source\PSoC5/ADC_SARANAL_PM.c ****         ADC_SARANAL_SAR_StartConvert();
  95:Generated_Source\PSoC5/ADC_SARANAL_PM.c ****     #endif /* (ADC_SARANAL_SAMPLE_MODE == ADC_SARANAL_SAMPLE_MODE_FREE_RUNNING) */
  96:Generated_Source\PSoC5/ADC_SARANAL_PM.c **** 
  97:Generated_Source\PSoC5/ADC_SARANAL_PM.c ****     (void) CY_GET_REG8(ADC_SARANAL_STATUS_PTR);
  84              		.loc 1 97 0
  85 0018 014B     		ldr	r3, .L5
  86 001a 1B78     		ldrb	r3, [r3]	@ zero_extendqisi2
  87 001c 08BD     		pop	{r3, pc}
  88              	.L6:
  89 001e 00BF     		.align	2
  90              	.L5:
  91 0020 61640040 		.word	1073767521
  92              		.cfi_endproc
  93              	.LFE1:
  94              		.size	ADC_SARANAL_Wakeup, .-ADC_SARANAL_Wakeup
  95              		.section	.text.ADC_SARANAL_SaveConfig,"ax",%progbits
  96              		.align	2
  97              		.global	ADC_SARANAL_SaveConfig
  98              		.thumb
  99              		.thumb_func
 100              		.type	ADC_SARANAL_SaveConfig, %function
 101              	ADC_SARANAL_SaveConfig:
 102              	.LFB2:
  98:Generated_Source\PSoC5/ADC_SARANAL_PM.c **** }
  99:Generated_Source\PSoC5/ADC_SARANAL_PM.c **** 
 100:Generated_Source\PSoC5/ADC_SARANAL_PM.c **** 
 101:Generated_Source\PSoC5/ADC_SARANAL_PM.c **** /*******************************************************************************
 102:Generated_Source\PSoC5/ADC_SARANAL_PM.c **** * Function Name: ADC_SARANAL_SaveConfig
 103:Generated_Source\PSoC5/ADC_SARANAL_PM.c **** ********************************************************************************
 104:Generated_Source\PSoC5/ADC_SARANAL_PM.c **** *
 105:Generated_Source\PSoC5/ADC_SARANAL_PM.c **** * Summary:
 106:Generated_Source\PSoC5/ADC_SARANAL_PM.c **** *  Save the current configuration of ADC non-retention registers
 107:Generated_Source\PSoC5/ADC_SARANAL_PM.c **** *
 108:Generated_Source\PSoC5/ADC_SARANAL_PM.c **** * Parameters:
 109:Generated_Source\PSoC5/ADC_SARANAL_PM.c **** *  None.
 110:Generated_Source\PSoC5/ADC_SARANAL_PM.c **** *
 111:Generated_Source\PSoC5/ADC_SARANAL_PM.c **** * Return:
 112:Generated_Source\PSoC5/ADC_SARANAL_PM.c **** *  None.
 113:Generated_Source\PSoC5/ADC_SARANAL_PM.c **** *
 114:Generated_Source\PSoC5/ADC_SARANAL_PM.c **** * Side Effects:
 115:Generated_Source\PSoC5/ADC_SARANAL_PM.c **** *  None.
 116:Generated_Source\PSoC5/ADC_SARANAL_PM.c **** *
 117:Generated_Source\PSoC5/ADC_SARANAL_PM.c **** * Reentrant:
 118:Generated_Source\PSoC5/ADC_SARANAL_PM.c **** *  No.
 119:Generated_Source\PSoC5/ADC_SARANAL_PM.c **** *
 120:Generated_Source\PSoC5/ADC_SARANAL_PM.c **** *******************************************************************************/
 121:Generated_Source\PSoC5/ADC_SARANAL_PM.c **** void ADC_SARANAL_SaveConfig(void)
 122:Generated_Source\PSoC5/ADC_SARANAL_PM.c **** {
 103              		.loc 1 122 0
 104              		.cfi_startproc
 105              		@ args = 0, pretend = 0, frame = 0
 106              		@ frame_needed = 0, uses_anonymous_args = 0
ARM GAS  C:\Users\SZABMT~1\AppData\Local\Temp\ccfbIl0u.s 			page 5


 107              		@ link register save eliminated.
 108 0000 7047     		bx	lr
 109              		.cfi_endproc
 110              	.LFE2:
 111              		.size	ADC_SARANAL_SaveConfig, .-ADC_SARANAL_SaveConfig
 112 0002 00BF     		.section	.text.ADC_SARANAL_RestoreConfig,"ax",%progbits
 113              		.align	2
 114              		.global	ADC_SARANAL_RestoreConfig
 115              		.thumb
 116              		.thumb_func
 117              		.type	ADC_SARANAL_RestoreConfig, %function
 118              	ADC_SARANAL_RestoreConfig:
 119              	.LFB3:
 123:Generated_Source\PSoC5/ADC_SARANAL_PM.c **** 
 124:Generated_Source\PSoC5/ADC_SARANAL_PM.c **** }
 125:Generated_Source\PSoC5/ADC_SARANAL_PM.c **** 
 126:Generated_Source\PSoC5/ADC_SARANAL_PM.c **** 
 127:Generated_Source\PSoC5/ADC_SARANAL_PM.c **** /*******************************************************************************
 128:Generated_Source\PSoC5/ADC_SARANAL_PM.c **** * Function Name: ADC_SARANAL_RestoreConfig
 129:Generated_Source\PSoC5/ADC_SARANAL_PM.c **** ********************************************************************************
 130:Generated_Source\PSoC5/ADC_SARANAL_PM.c **** *
 131:Generated_Source\PSoC5/ADC_SARANAL_PM.c **** * Summary:
 132:Generated_Source\PSoC5/ADC_SARANAL_PM.c **** *  Restores the configuration of ADC non-retention registers
 133:Generated_Source\PSoC5/ADC_SARANAL_PM.c **** *
 134:Generated_Source\PSoC5/ADC_SARANAL_PM.c **** * Parameters:
 135:Generated_Source\PSoC5/ADC_SARANAL_PM.c **** *  None.
 136:Generated_Source\PSoC5/ADC_SARANAL_PM.c **** *
 137:Generated_Source\PSoC5/ADC_SARANAL_PM.c **** * Return:
 138:Generated_Source\PSoC5/ADC_SARANAL_PM.c **** *  None.
 139:Generated_Source\PSoC5/ADC_SARANAL_PM.c **** *
 140:Generated_Source\PSoC5/ADC_SARANAL_PM.c **** * Side Effects:
 141:Generated_Source\PSoC5/ADC_SARANAL_PM.c **** *  None.
 142:Generated_Source\PSoC5/ADC_SARANAL_PM.c **** *
 143:Generated_Source\PSoC5/ADC_SARANAL_PM.c **** * Reentrant:
 144:Generated_Source\PSoC5/ADC_SARANAL_PM.c **** *  No.
 145:Generated_Source\PSoC5/ADC_SARANAL_PM.c **** *
 146:Generated_Source\PSoC5/ADC_SARANAL_PM.c **** *******************************************************************************/
 147:Generated_Source\PSoC5/ADC_SARANAL_PM.c **** void ADC_SARANAL_RestoreConfig(void)
 148:Generated_Source\PSoC5/ADC_SARANAL_PM.c **** {
 120              		.loc 1 148 0
 121              		.cfi_startproc
 122              		@ args = 0, pretend = 0, frame = 0
 123              		@ frame_needed = 0, uses_anonymous_args = 0
 124              		@ link register save eliminated.
 125 0000 7047     		bx	lr
 126              		.cfi_endproc
 127              	.LFE3:
 128              		.size	ADC_SARANAL_RestoreConfig, .-ADC_SARANAL_RestoreConfig
 129 0002 00BF     		.text
 130              	.Letext0:
 131              		.file 2 "Generated_Source\\PSoC5\\cytypes.h"
 132              		.file 3 "Generated_Source\\PSoC5\\ADC_SARANAL_SAR.h"
 133              		.file 4 "Generated_Source\\PSoC5\\ADC_SARANAL.h"
 134              		.file 5 "Generated_Source\\PSoC5\\ADC_SARANAL_IntClock.h"
 135              		.file 6 "Generated_Source\\PSoC5\\CyLib.h"