ARM GAS  C:\Users\SZABMT~1\AppData\Local\Temp\cc92uOqK.s 			page 1


   1              		.syntax unified
   2              		.cpu cortex-m3
   3              		.fpu softvfp
   4              		.eabi_attribute 20, 1
   5              		.eabi_attribute 21, 1
   6              		.eabi_attribute 23, 3
   7              		.eabi_attribute 24, 1
   8              		.eabi_attribute 25, 1
   9              		.eabi_attribute 26, 1
  10              		.eabi_attribute 30, 1
  11              		.eabi_attribute 34, 1
  12              		.eabi_attribute 18, 4
  13              		.thumb
  14              		.syntax unified
  15              		.file	"main.c"
  16              		.text
  17              	.Ltext0:
  18              		.cfi_sections	.debug_frame
  19              		.section	.text.setSpeeds,"ax",%progbits
  20              		.align	2
  21              		.global	setSpeeds
  22              		.thumb
  23              		.thumb_func
  24              		.type	setSpeeds, %function
  25              	setSpeeds:
  26              	.LFB63:
  27              		.file 1 "main.c"
   1:main.c        **** /* ========================================
   2:main.c        ****  *
   3:main.c        ****  * Copyright YOUR COMPANY, THE YEAR
   4:main.c        ****  * All Rights Reserved
   5:main.c        ****  * UNPUBLISHED, LICENSED SOFTWARE.
   6:main.c        ****  *
   7:main.c        ****  * CONFIDENTIAL AND PROPRIETARY INFORMATION
   8:main.c        ****  * WHICH IS THE PROPERTY OF your company.
   9:main.c        ****  *
  10:main.c        ****  * ========================================
  11:main.c        **** */
  12:main.c        **** #include "project.h"
  13:main.c        **** 
  14:main.c        **** void setSpeeds (int16 left ,int16 right)
  15:main.c        **** {
  28              		.loc 1 15 0
  29              		.cfi_startproc
  30              		@ args = 0, pretend = 0, frame = 0
  31              		@ frame_needed = 0, uses_anonymous_args = 0
  32              	.LVL0:
  33 0000 10B5     		push	{r4, lr}
  34              		.cfi_def_cfa_offset 8
  35              		.cfi_offset 4, -8
  36              		.cfi_offset 14, -4
  37 0002 0C46     		mov	r4, r1
  16:main.c        ****    
  17:main.c        **** if(left<0)
  38              		.loc 1 17 0
  39 0004 0028     		cmp	r0, #0
  40              	.LVL1:
ARM GAS  C:\Users\SZABMT~1\AppData\Local\Temp\cc92uOqK.s 			page 2


  41 0006 07DA     		bge	.L2
  18:main.c        **** {
  19:main.c        ****    LEFT_PWM_WriteCompare(-1*left);
  42              		.loc 1 19 0
  43 0008 4042     		negs	r0, r0
  44 000a C0B2     		uxtb	r0, r0
  45 000c FFF7FEFF 		bl	LEFT_PWM_WriteCompare
  46              	.LVL2:
  20:main.c        ****     LEFT_MOTOR_DIR_Write(0);
  47              		.loc 1 20 0
  48 0010 0020     		movs	r0, #0
  49 0012 FFF7FEFF 		bl	LEFT_MOTOR_DIR_Write
  50              	.LVL3:
  51 0016 05E0     		b	.L3
  52              	.LVL4:
  53              	.L2:
  21:main.c        **** }
  22:main.c        **** else
  23:main.c        **** {
  24:main.c        ****     LEFT_PWM_WriteCompare(left);
  54              		.loc 1 24 0
  55 0018 C0B2     		uxtb	r0, r0
  56 001a FFF7FEFF 		bl	LEFT_PWM_WriteCompare
  57              	.LVL5:
  25:main.c        ****     LEFT_MOTOR_DIR_Write(1);
  58              		.loc 1 25 0
  59 001e 0120     		movs	r0, #1
  60 0020 FFF7FEFF 		bl	LEFT_MOTOR_DIR_Write
  61              	.LVL6:
  62              	.L3:
  26:main.c        **** }
  27:main.c        **** 
  28:main.c        **** if(right<0)
  63              		.loc 1 28 0
  64 0024 002C     		cmp	r4, #0
  65 0026 07DA     		bge	.L4
  29:main.c        **** {
  30:main.c        ****     RIGHT_PWM_WriteCompare(-1*right);
  66              		.loc 1 30 0
  67 0028 6042     		negs	r0, r4
  68 002a C0B2     		uxtb	r0, r0
  69 002c FFF7FEFF 		bl	RIGHT_PWM_WriteCompare
  70              	.LVL7:
  31:main.c        ****     RIGHT_MOTOR_DIR_Write(0);
  71              		.loc 1 31 0
  72 0030 0020     		movs	r0, #0
  73 0032 FFF7FEFF 		bl	RIGHT_MOTOR_DIR_Write
  74              	.LVL8:
  75 0036 10BD     		pop	{r4, pc}
  76              	.L4:
  32:main.c        **** }
  33:main.c        **** else
  34:main.c        **** {
  35:main.c        ****     RIGHT_PWM_WriteCompare(right);
  77              		.loc 1 35 0
  78 0038 E0B2     		uxtb	r0, r4
  79 003a FFF7FEFF 		bl	RIGHT_PWM_WriteCompare
ARM GAS  C:\Users\SZABMT~1\AppData\Local\Temp\cc92uOqK.s 			page 3


  80              	.LVL9:
  36:main.c        ****     RIGHT_MOTOR_DIR_Write(1);
  81              		.loc 1 36 0
  82 003e 0120     		movs	r0, #1
  83 0040 FFF7FEFF 		bl	RIGHT_MOTOR_DIR_Write
  84              	.LVL10:
  85 0044 10BD     		pop	{r4, pc}
  86              		.cfi_endproc
  87              	.LFE63:
  88              		.size	setSpeeds, .-setSpeeds
  89 0046 00BF     		.section	.text.MYTime,"ax",%progbits
  90              		.align	2
  91              		.global	MYTime
  92              		.thumb
  93              		.thumb_func
  94              		.type	MYTime, %function
  95              	MYTime:
  96              	.LFB64:
  37:main.c        **** }
  38:main.c        **** 
  39:main.c        **** }
  40:main.c        **** 
  41:main.c        **** uint32_t lastTime=0;
  42:main.c        ****  uint8_t MYTime(){
  97              		.loc 1 42 0
  98              		.cfi_startproc
  99              		@ args = 0, pretend = 0, frame = 0
 100              		@ frame_needed = 0, uses_anonymous_args = 0
 101 0000 08B5     		push	{r3, lr}
 102              		.cfi_def_cfa_offset 8
 103              		.cfi_offset 3, -8
 104              		.cfi_offset 14, -4
  43:main.c        ****         uint32_t now=CySysTickGetValue();
 105              		.loc 1 43 0
 106 0002 FFF7FEFF 		bl	CySysTickGetValue
 107              	.LVL11:
  44:main.c        ****         if(now-lastTime>100){
 108              		.loc 1 44 0
 109 0006 054B     		ldr	r3, .L11
 110 0008 1B68     		ldr	r3, [r3]
 111 000a C31A     		subs	r3, r0, r3
 112 000c 642B     		cmp	r3, #100
 113 000e 03D9     		bls	.L9
  45:main.c        ****             lastTime=now;
 114              		.loc 1 45 0
 115 0010 024B     		ldr	r3, .L11
 116 0012 1860     		str	r0, [r3]
  46:main.c        ****             return 1;}
 117              		.loc 1 46 0
 118 0014 0120     		movs	r0, #1
 119              	.LVL12:
 120 0016 08BD     		pop	{r3, pc}
 121              	.LVL13:
 122              	.L9:
  47:main.c        ****         
  48:main.c        ****         return 0;}
 123              		.loc 1 48 0
ARM GAS  C:\Users\SZABMT~1\AppData\Local\Temp\cc92uOqK.s 			page 4


 124 0018 0020     		movs	r0, #0
 125              	.LVL14:
 126 001a 08BD     		pop	{r3, pc}
 127              	.L12:
 128              		.align	2
 129              	.L11:
 130 001c 00000000 		.word	.LANCHOR0
 131              		.cfi_endproc
 132              	.LFE64:
 133              		.size	MYTime, .-MYTime
 134              		.global	__aeabi_i2d
 135              		.global	__aeabi_dmul
 136              		.global	__aeabi_d2iz
 137              		.section	.text.main,"ax",%progbits
 138              		.align	2
 139              		.global	main
 140              		.thumb
 141              		.thumb_func
 142              		.type	main, %function
 143              	main:
 144              	.LFB65:
  49:main.c        **** 
  50:main.c        **** typedef enum
  51:main.c        **** {
  52:main.c        **** STRAIT,
  53:main.c        **** TURN_R,
  54:main.c        **** TURN_L,
  55:main.c        **** BACK, 
  56:main.c        **** SEARCHL,
  57:main.c        **** SEARCHR,
  58:main.c        **** NYEKK    
  59:main.c        **** } Stateses;
  60:main.c        ****  int tomb[6]={1023,1023,1023,1023,1023,1023};
  61:main.c        **** 
  62:main.c        **** int main(void)
  63:main.c        **** {
 145              		.loc 1 63 0
 146              		.cfi_startproc
 147              		@ args = 0, pretend = 0, frame = 0
 148              		@ frame_needed = 0, uses_anonymous_args = 0
 149 0000 2DE9F843 		push	{r3, r4, r5, r6, r7, r8, r9, lr}
 150              		.cfi_def_cfa_offset 32
 151              		.cfi_offset 3, -32
 152              		.cfi_offset 4, -28
 153              		.cfi_offset 5, -24
 154              		.cfi_offset 6, -20
 155              		.cfi_offset 7, -16
 156              		.cfi_offset 8, -12
 157              		.cfi_offset 9, -8
 158              		.cfi_offset 14, -4
  64:main.c        ****     CyGlobalIntEnable; /* Enable global interrupts. */
 159              		.loc 1 64 0
 160              		.syntax unified
 161              	@ 64 "main.c" 1
 162 0004 62B6     		CPSIE   i
 163              	@ 0 "" 2
  65:main.c        ****     //inditas
ARM GAS  C:\Users\SZABMT~1\AppData\Local\Temp\cc92uOqK.s 			page 5


  66:main.c        **** RIGHT_PWM_Start();
 164              		.loc 1 66 0
 165              		.thumb
 166              		.syntax unified
 167 0006 FFF7FEFF 		bl	RIGHT_PWM_Start
 168              	.LVL15:
  67:main.c        **** LEFT_PWM_Start();
 169              		.loc 1 67 0
 170 000a FFF7FEFF 		bl	LEFT_PWM_Start
 171              	.LVL16:
  68:main.c        **** CySysTickStart();
 172              		.loc 1 68 0
 173 000e FFF7FEFF 		bl	CySysTickStart
 174              	.LVL17:
  69:main.c        **** ADC_pot_Start();
 175              		.loc 1 69 0
 176 0012 FFF7FEFF 		bl	ADC_pot_Start
 177              	.LVL18:
  70:main.c        **** //ADC_SARANAL_Start();
  71:main.c        **** LCD_Start();
 178              		.loc 1 71 0
 179 0016 FFF7FEFF 		bl	LCD_Start
 180              	.LVL19:
  72:main.c        **** setSpeeds(0,0);
 181              		.loc 1 72 0
 182 001a 0021     		movs	r1, #0
 183 001c 0846     		mov	r0, r1
 184 001e FFF7FEFF 		bl	setSpeeds
 185              	.LVL20:
  73:main.c        ****     /* Place your initialization/startup code here (e.g. MyInst_Start()) */
  74:main.c        **** //valtozok
  75:main.c        **** uint16 pot=1023;
  76:main.c        **** uint16 potvalue=0;
  77:main.c        **** //int tomb[6]={1023,1023,1023,1023,1023,1023};
  78:main.c        **** Stateses States=NYEKK;
  79:main.c        **** int startstat=0;
 186              		.loc 1 79 0
 187 0022 0026     		movs	r6, #0
  78:main.c        **** int startstat=0;
 188              		.loc 1 78 0
 189 0024 0625     		movs	r5, #6
  76:main.c        **** //int tomb[6]={1023,1023,1023,1023,1023,1023};
 190              		.loc 1 76 0
 191 0026 3446     		mov	r4, r6
 192              	.LVL21:
 193              	.L39:
  80:main.c        **** 
  81:main.c        ****     for(;;)
  82:main.c        ****     {
  83:main.c        ****         /* Place your application code here. */
  84:main.c        ****         //nyomogomb ki/be kapcsolas
  85:main.c        ****         if  (BSTOPGOMB_Read()==0){startstat=1;}//kikapcs
 194              		.loc 1 85 0
 195 0028 FFF7FEFF 		bl	BSTOPGOMB_Read
 196              	.LVL22:
 197 002c 00B9     		cbnz	r0, .L14
 198 002e 0126     		movs	r6, #1
ARM GAS  C:\Users\SZABMT~1\AppData\Local\Temp\cc92uOqK.s 			page 6


 199              	.LVL23:
 200              	.L14:
  86:main.c        ****         if  (BSTARTGOMB_Read()==0){startstat=0;}//bekapcs
 201              		.loc 1 86 0
 202 0030 FFF7FEFF 		bl	BSTARTGOMB_Read
 203              	.LVL24:
 204 0034 00B9     		cbnz	r0, .L15
 205 0036 0026     		movs	r6, #0
 206              	.LVL25:
 207              	.L15:
  87:main.c        ****         if(startstat==0)
 208              		.loc 1 87 0
 209 0038 002E     		cmp	r6, #0
 210 003a 40F08980 		bne	.L16
 211              	.LVL26:
  88:main.c        ****         {States=NYEKK;
  89:main.c        ****          //digitalis vonalkovato
  90:main.c        ****         if(IR_FL1_Read()==0&&IR_FR2_Read()==0){States=STRAIT;}//vonalon van mind 2 IR
 212              		.loc 1 90 0
 213 003e FFF7FEFF 		bl	IR_FL1_Read
 214              	.LVL27:
 215 0042 20B9     		cbnz	r0, .L42
 216              		.loc 1 90 0 is_stmt 0 discriminator 1
 217 0044 FFF7FEFF 		bl	IR_FR2_Read
 218              	.LVL28:
 219 0048 18B1     		cbz	r0, .L43
  88:main.c        ****         {States=NYEKK;
 220              		.loc 1 88 0 is_stmt 1
 221 004a 0625     		movs	r5, #6
 222 004c 02E0     		b	.L17
 223              	.L42:
 224 004e 0625     		movs	r5, #6
 225 0050 00E0     		b	.L17
 226              	.L43:
 227              		.loc 1 90 0
 228 0052 0025     		movs	r5, #0
 229              	.L17:
 230              	.LVL29:
  91:main.c        ****         if(IR_FL1_Read()==0&&IR_FR2_Read()==1){States= TURN_L;}//vonalon van jobb IR
 231              		.loc 1 91 0
 232 0054 FFF7FEFF 		bl	IR_FL1_Read
 233              	.LVL30:
 234 0058 20B9     		cbnz	r0, .L18
 235              		.loc 1 91 0 is_stmt 0 discriminator 1
 236 005a FFF7FEFF 		bl	IR_FR2_Read
 237              	.LVL31:
 238 005e 0128     		cmp	r0, #1
 239 0060 00D1     		bne	.L18
 240              		.loc 1 91 0
 241 0062 0225     		movs	r5, #2
 242              	.LVL32:
 243              	.L18:
  92:main.c        ****         if(IR_FL1_Read()==1&&IR_FR2_Read()==0){States=TURN_R;}//vonalon van bal IR
 244              		.loc 1 92 0 is_stmt 1
 245 0064 FFF7FEFF 		bl	IR_FL1_Read
 246              	.LVL33:
 247 0068 0128     		cmp	r0, #1
ARM GAS  C:\Users\SZABMT~1\AppData\Local\Temp\cc92uOqK.s 			page 7


 248 006a 03D1     		bne	.L19
 249              		.loc 1 92 0 is_stmt 0 discriminator 1
 250 006c FFF7FEFF 		bl	IR_FR2_Read
 251              	.LVL34:
 252 0070 00B9     		cbnz	r0, .L19
 253              		.loc 1 92 0
 254 0072 0125     		movs	r5, #1
 255              	.LVL35:
 256              	.L19:
  93:main.c        ****         if(IR_FL1_Read()==1&&IR_FR2_Read()==1&&States==TURN_L){States=SEARCHR;}//keres jobbra
 257              		.loc 1 93 0 is_stmt 1
 258 0074 FFF7FEFF 		bl	IR_FL1_Read
 259              	.LVL36:
 260 0078 0128     		cmp	r0, #1
 261 007a 06D1     		bne	.L20
 262              		.loc 1 93 0 is_stmt 0 discriminator 1
 263 007c FFF7FEFF 		bl	IR_FR2_Read
 264              	.LVL37:
 265 0080 0128     		cmp	r0, #1
 266 0082 02D1     		bne	.L20
 267              		.loc 1 93 0 discriminator 2
 268 0084 022D     		cmp	r5, #2
 269 0086 00D1     		bne	.L20
 270              		.loc 1 93 0
 271 0088 0525     		movs	r5, #5
 272              	.LVL38:
 273              	.L20:
  94:main.c        ****         if(IR_FL1_Read()==1&&IR_FR2_Read()==1&&States==TURN_R){States=SEARCHL;}//keres balra
 274              		.loc 1 94 0 is_stmt 1
 275 008a FFF7FEFF 		bl	IR_FL1_Read
 276              	.LVL39:
 277 008e 0128     		cmp	r0, #1
 278 0090 06D1     		bne	.L21
 279              		.loc 1 94 0 is_stmt 0 discriminator 1
 280 0092 FFF7FEFF 		bl	IR_FR2_Read
 281              	.LVL40:
 282 0096 0128     		cmp	r0, #1
 283 0098 02D1     		bne	.L21
 284              		.loc 1 94 0 discriminator 2
 285 009a 012D     		cmp	r5, #1
 286 009c 00D1     		bne	.L21
 287              		.loc 1 94 0
 288 009e 0425     		movs	r5, #4
 289              	.LVL41:
 290              	.L21:
  95:main.c        ****         if(IR_FL1_Read()==1&&IR_FR2_Read()==1&&States==SEARCHR){States=SEARCHR;}//keres jobbra
 291              		.loc 1 95 0 is_stmt 1
 292 00a0 FFF7FEFF 		bl	IR_FL1_Read
 293              	.LVL42:
 294 00a4 0128     		cmp	r0, #1
 295 00a6 01D1     		bne	.L22
 296              		.loc 1 95 0 is_stmt 0 discriminator 1
 297 00a8 FFF7FEFF 		bl	IR_FR2_Read
 298              	.LVL43:
 299              	.L22:
  96:main.c        ****         if(IR_FL1_Read()==1&&IR_FR2_Read()==1&&States==SEARCHL){States=SEARCHL;}//keres balra
 300              		.loc 1 96 0 is_stmt 1
ARM GAS  C:\Users\SZABMT~1\AppData\Local\Temp\cc92uOqK.s 			page 8


 301 00ac FFF7FEFF 		bl	IR_FL1_Read
 302              	.LVL44:
 303 00b0 0128     		cmp	r0, #1
 304 00b2 01D1     		bne	.L23
 305              		.loc 1 96 0 is_stmt 0 discriminator 1
 306 00b4 FFF7FEFF 		bl	IR_FR2_Read
 307              	.LVL45:
 308              	.L23:
  97:main.c        ****             
  98:main.c        ****          //analog utkozes ezrekelok
  99:main.c        ****        //tomb=ADC_SARANAL_RETURN_STATUS;
 100:main.c        ****         
 101:main.c        ****         if((tomb[0]<255||tomb[1]<255||tomb[2]<255)&&(tomb[3]<255||tomb[4]<255||tomb[5]<255)){States
 309              		.loc 1 101 0 is_stmt 1
 310 00b8 8D4B     		ldr	r3, .L55+8
 311 00ba 1B68     		ldr	r3, [r3]
 312 00bc FE2B     		cmp	r3, #254
 313 00be 07DD     		ble	.L24
 314              		.loc 1 101 0 is_stmt 0 discriminator 2
 315 00c0 8B4A     		ldr	r2, .L55+8
 316 00c2 5268     		ldr	r2, [r2, #4]
 317 00c4 FE2A     		cmp	r2, #254
 318 00c6 03DD     		ble	.L24
 319              		.loc 1 101 0 discriminator 4
 320 00c8 894A     		ldr	r2, .L55+8
 321 00ca 9268     		ldr	r2, [r2, #8]
 322 00cc FE2A     		cmp	r2, #254
 323 00ce 11DC     		bgt	.L25
 324              	.L24:
 325              		.loc 1 101 0 discriminator 5
 326 00d0 874A     		ldr	r2, .L55+8
 327 00d2 D268     		ldr	r2, [r2, #12]
 328 00d4 FE2A     		cmp	r2, #254
 329 00d6 08DD     		ble	.L48
 330              		.loc 1 101 0 discriminator 7
 331 00d8 854A     		ldr	r2, .L55+8
 332 00da 1269     		ldr	r2, [r2, #16]
 333 00dc FE2A     		cmp	r2, #254
 334 00de 06DD     		ble	.L49
 335              		.loc 1 101 0 discriminator 9
 336 00e0 834A     		ldr	r2, .L55+8
 337 00e2 5269     		ldr	r2, [r2, #20]
 338 00e4 FE2A     		cmp	r2, #254
 339 00e6 04DD     		ble	.L50
 340 00e8 04E0     		b	.L25
 341              	.L48:
 342              		.loc 1 101 0
 343 00ea 0625     		movs	r5, #6
 344              	.LVL46:
 345 00ec 02E0     		b	.L25
 346              	.LVL47:
 347              	.L49:
 348 00ee 0625     		movs	r5, #6
 349              	.LVL48:
 350 00f0 00E0     		b	.L25
 351              	.LVL49:
 352              	.L50:
ARM GAS  C:\Users\SZABMT~1\AppData\Local\Temp\cc92uOqK.s 			page 9


 353 00f2 0625     		movs	r5, #6
 354              	.LVL50:
 355              	.L25:
 102:main.c        ****         if((tomb[0]<255||tomb[1]<255||tomb[2]<255)&&(tomb[3]>255&&tomb[4]>255&&tomb[5]>255)){States
 356              		.loc 1 102 0 is_stmt 1
 357 00f4 FE2B     		cmp	r3, #254
 358 00f6 07DD     		ble	.L26
 359              		.loc 1 102 0 is_stmt 0 discriminator 2
 360 00f8 7D4B     		ldr	r3, .L55+8
 361 00fa 5B68     		ldr	r3, [r3, #4]
 362 00fc FE2B     		cmp	r3, #254
 363 00fe 03DD     		ble	.L26
 364              		.loc 1 102 0 discriminator 4
 365 0100 7B4B     		ldr	r3, .L55+8
 366 0102 9B68     		ldr	r3, [r3, #8]
 367 0104 FE2B     		cmp	r3, #254
 368 0106 0CDC     		bgt	.L27
 369              	.L26:
 370              		.loc 1 102 0 discriminator 5
 371 0108 794B     		ldr	r3, .L55+8
 372 010a DB68     		ldr	r3, [r3, #12]
 373 010c FF2B     		cmp	r3, #255
 374 010e 08DD     		ble	.L27
 375              		.loc 1 102 0 discriminator 6
 376 0110 774B     		ldr	r3, .L55+8
 377 0112 1B69     		ldr	r3, [r3, #16]
 378 0114 FF2B     		cmp	r3, #255
 379 0116 04DD     		ble	.L27
 380              		.loc 1 102 0 discriminator 7
 381 0118 754B     		ldr	r3, .L55+8
 382 011a 5B69     		ldr	r3, [r3, #20]
 383 011c FF2B     		cmp	r3, #255
 384 011e 00DD     		ble	.L27
 385              		.loc 1 102 0
 386 0120 0325     		movs	r5, #3
 387              	.LVL51:
 388              	.L27:
 103:main.c        ****         if(tomb[0]<255||tomb[1]<255||tomb[2]<255){States=States;}
 104:main.c        ****         
 105:main.c        ****         
 106:main.c        ****         
 107:main.c        ****         //pometeres sebessegvaltas
 108:main.c        ****             ADC_pot_StartConvert();
 389              		.loc 1 108 0 is_stmt 1
 390 0122 FFF7FEFF 		bl	ADC_pot_StartConvert
 391              	.LVL52:
 109:main.c        ****             pot=ADC_pot_GetResult16();//pot ertek atad valtozo
 392              		.loc 1 109 0
 393 0126 FFF7FEFF 		bl	ADC_pot_GetResult16
 394              	.LVL53:
 395 012a 80B2     		uxth	r0, r0
 396              	.LVL54:
 110:main.c        ****             potvalue=(pot/1023)*100;//intervallum modosito 1023->255
 397              		.loc 1 110 0
 398 012c 714A     		ldr	r2, .L55+12
 399 012e A2FB0032 		umull	r3, r2, r2, r0
 400 0132 831A     		subs	r3, r0, r2
ARM GAS  C:\Users\SZABMT~1\AppData\Local\Temp\cc92uOqK.s 			page 10


 401 0134 02EB5303 		add	r3, r2, r3, lsr #1
 402 0138 5B0A     		lsrs	r3, r3, #9
 403 013a 03EB8303 		add	r3, r3, r3, lsl #2
 404 013e 03EB8303 		add	r3, r3, r3, lsl #2
 405 0142 9C00     		lsls	r4, r3, #2
 406              	.LVL55:
 407 0144 A4B2     		uxth	r4, r4
 408              	.LVL56:
 111:main.c        ****             if(potvalue<1){potvalue=1;}//biztositas felt
 409              		.loc 1 111 0
 410 0146 04B9     		cbnz	r4, .L28
 411 0148 0124     		movs	r4, #1
 412              	.LVL57:
 413              	.L28:
 112:main.c        ****             if(potvalue>99){potvalue=100;}//biztositas felt
 414              		.loc 1 112 0
 415 014a 632C     		cmp	r4, #99
 416 014c 00D9     		bls	.L16
 417 014e 6424     		movs	r4, #100
 418              	.LVL58:
 419              	.L16:
 113:main.c        ****          }   
 114:main.c        ****            LCD_PrintHexUint16(potvalue);
 420              		.loc 1 114 0
 421 0150 2046     		mov	r0, r4
 422 0152 FFF7FEFF 		bl	LCD_PrintInt16
 423              	.LVL59:
 115:main.c        ****            LCD_PrintHexUint8(States);
 424              		.loc 1 115 0
 425 0156 2846     		mov	r0, r5
 426 0158 FFF7FEFF 		bl	LCD_PrintInt8
 427              	.LVL60:
 116:main.c        ****             
 117:main.c        ****             switch(States)
 428              		.loc 1 117 0
 429 015c 062D     		cmp	r5, #6
 430 015e 00F2B480 		bhi	.L29
 431 0162 DFE805F0 		tbb	[pc, r5]
 432              	.L31:
 433 0166 04       		.byte	(.L30-.L31)/2
 434 0167 15       		.byte	(.L32-.L31)/2
 435 0168 36       		.byte	(.L33-.L31)/2
 436 0169 57       		.byte	(.L34-.L31)/2
 437 016a 69       		.byte	(.L35-.L31)/2
 438 016b 8B       		.byte	(.L36-.L31)/2
 439 016c AD       		.byte	(.L37-.L31)/2
 440 016d 00       		.p2align 1
 441              	.L30:
 118:main.c        ****         { case STRAIT:setSpeeds(80*potvalue*0.011,80*potvalue*0.011);
 442              		.loc 1 118 0
 443 016e 04EB8403 		add	r3, r4, r4, lsl #2
 444 0172 1801     		lsls	r0, r3, #4
 445 0174 FFF7FEFF 		bl	__aeabi_i2d
 446              	.LVL61:
 447 0178 5BA3     		adr	r3, .L55
 448 017a D3E90023 		ldrd	r2, [r3]
 449 017e FFF7FEFF 		bl	__aeabi_dmul
ARM GAS  C:\Users\SZABMT~1\AppData\Local\Temp\cc92uOqK.s 			page 11


 450              	.LVL62:
 451 0182 FFF7FEFF 		bl	__aeabi_d2iz
 452              	.LVL63:
 453 0186 00B2     		sxth	r0, r0
 454 0188 0146     		mov	r1, r0
 455 018a FFF7FEFF 		bl	setSpeeds
 456              	.LVL64:
 119:main.c        ****         break;
 457              		.loc 1 119 0
 458 018e A0E0     		b	.L38
 459              	.L32:
 120:main.c        ****         case  TURN_R:setSpeeds(-60*potvalue*0.011,60*potvalue*0.011);
 460              		.loc 1 120 0
 461 0190 2701     		lsls	r7, r4, #4
 462 0192 E31B     		subs	r3, r4, r7
 463 0194 9800     		lsls	r0, r3, #2
 464 0196 FFF7FEFF 		bl	__aeabi_i2d
 465              	.LVL65:
 466 019a 53A3     		adr	r3, .L55
 467 019c D3E90023 		ldrd	r2, [r3]
 468 01a0 FFF7FEFF 		bl	__aeabi_dmul
 469              	.LVL66:
 470 01a4 8046     		mov	r8, r0
 471 01a6 8946     		mov	r9, r1
 472 01a8 3F1B     		subs	r7, r7, r4
 473 01aa B800     		lsls	r0, r7, #2
 474 01ac FFF7FEFF 		bl	__aeabi_i2d
 475              	.LVL67:
 476 01b0 4DA3     		adr	r3, .L55
 477 01b2 D3E90023 		ldrd	r2, [r3]
 478 01b6 FFF7FEFF 		bl	__aeabi_dmul
 479              	.LVL68:
 480 01ba FFF7FEFF 		bl	__aeabi_d2iz
 481              	.LVL69:
 482 01be 07B2     		sxth	r7, r0
 483 01c0 4046     		mov	r0, r8
 484 01c2 4946     		mov	r1, r9
 485 01c4 FFF7FEFF 		bl	__aeabi_d2iz
 486              	.LVL70:
 487 01c8 3946     		mov	r1, r7
 488 01ca 00B2     		sxth	r0, r0
 489 01cc FFF7FEFF 		bl	setSpeeds
 490              	.LVL71:
 121:main.c        ****         break;
 491              		.loc 1 121 0
 492 01d0 7FE0     		b	.L38
 493              	.L33:
 122:main.c        ****         case  TURN_L:setSpeeds(60*potvalue*0.011,-60*potvalue*0.011);
 494              		.loc 1 122 0
 495 01d2 2701     		lsls	r7, r4, #4
 496 01d4 3B1B     		subs	r3, r7, r4
 497 01d6 9800     		lsls	r0, r3, #2
 498 01d8 FFF7FEFF 		bl	__aeabi_i2d
 499              	.LVL72:
 500 01dc 42A3     		adr	r3, .L55
 501 01de D3E90023 		ldrd	r2, [r3]
 502 01e2 FFF7FEFF 		bl	__aeabi_dmul
ARM GAS  C:\Users\SZABMT~1\AppData\Local\Temp\cc92uOqK.s 			page 12


 503              	.LVL73:
 504 01e6 8046     		mov	r8, r0
 505 01e8 8946     		mov	r9, r1
 506 01ea E71B     		subs	r7, r4, r7
 507 01ec B800     		lsls	r0, r7, #2
 508 01ee FFF7FEFF 		bl	__aeabi_i2d
 509              	.LVL74:
 510 01f2 3DA3     		adr	r3, .L55
 511 01f4 D3E90023 		ldrd	r2, [r3]
 512 01f8 FFF7FEFF 		bl	__aeabi_dmul
 513              	.LVL75:
 514 01fc FFF7FEFF 		bl	__aeabi_d2iz
 515              	.LVL76:
 516 0200 07B2     		sxth	r7, r0
 517 0202 4046     		mov	r0, r8
 518 0204 4946     		mov	r1, r9
 519 0206 FFF7FEFF 		bl	__aeabi_d2iz
 520              	.LVL77:
 521 020a 3946     		mov	r1, r7
 522 020c 00B2     		sxth	r0, r0
 523 020e FFF7FEFF 		bl	setSpeeds
 524              	.LVL78:
 123:main.c        ****         break;
 525              		.loc 1 123 0
 526 0212 5EE0     		b	.L38
 527              	.L34:
 124:main.c        ****         case  BACK:setSpeeds(-80*potvalue*0.011,-80*potvalue*0.011);
 528              		.loc 1 124 0
 529 0214 6FF04F00 		mvn	r0, #79
 530 0218 00FB04F0 		mul	r0, r0, r4
 531 021c FFF7FEFF 		bl	__aeabi_i2d
 532              	.LVL79:
 533 0220 31A3     		adr	r3, .L55
 534 0222 D3E90023 		ldrd	r2, [r3]
 535 0226 FFF7FEFF 		bl	__aeabi_dmul
 536              	.LVL80:
 537 022a FFF7FEFF 		bl	__aeabi_d2iz
 538              	.LVL81:
 539 022e 00B2     		sxth	r0, r0
 540 0230 0146     		mov	r1, r0
 541 0232 FFF7FEFF 		bl	setSpeeds
 542              	.LVL82:
 125:main.c        ****         break;
 543              		.loc 1 125 0
 544 0236 4CE0     		b	.L38
 545              	.L35:
 126:main.c        ****         case   SEARCHL:setSpeeds(60*potvalue*0.011,90*potvalue*0.011);
 546              		.loc 1 126 0
 547 0238 C4EB0413 		rsb	r3, r4, r4, lsl #4
 548 023c 9800     		lsls	r0, r3, #2
 549 023e FFF7FEFF 		bl	__aeabi_i2d
 550              	.LVL83:
 551 0242 29A3     		adr	r3, .L55
 552 0244 D3E90023 		ldrd	r2, [r3]
 553 0248 FFF7FEFF 		bl	__aeabi_dmul
 554              	.LVL84:
 555 024c 8046     		mov	r8, r0
ARM GAS  C:\Users\SZABMT~1\AppData\Local\Temp\cc92uOqK.s 			page 13


 556 024e 8946     		mov	r9, r1
 557 0250 5A20     		movs	r0, #90
 558 0252 00FB04F0 		mul	r0, r0, r4
 559 0256 FFF7FEFF 		bl	__aeabi_i2d
 560              	.LVL85:
 561 025a 23A3     		adr	r3, .L55
 562 025c D3E90023 		ldrd	r2, [r3]
 563 0260 FFF7FEFF 		bl	__aeabi_dmul
 564              	.LVL86:
 565 0264 FFF7FEFF 		bl	__aeabi_d2iz
 566              	.LVL87:
 567 0268 07B2     		sxth	r7, r0
 568 026a 4046     		mov	r0, r8
 569 026c 4946     		mov	r1, r9
 570 026e FFF7FEFF 		bl	__aeabi_d2iz
 571              	.LVL88:
 572 0272 3946     		mov	r1, r7
 573 0274 00B2     		sxth	r0, r0
 574 0276 FFF7FEFF 		bl	setSpeeds
 575              	.LVL89:
 127:main.c        ****          break;
 576              		.loc 1 127 0
 577 027a 2AE0     		b	.L38
 578              	.L36:
 128:main.c        ****         case   SEARCHR:setSpeeds(90*potvalue*0.011,60*potvalue*0.011);
 579              		.loc 1 128 0
 580 027c 5A20     		movs	r0, #90
 581 027e 00FB04F0 		mul	r0, r0, r4
 582 0282 FFF7FEFF 		bl	__aeabi_i2d
 583              	.LVL90:
 584 0286 18A3     		adr	r3, .L55
 585 0288 D3E90023 		ldrd	r2, [r3]
 586 028c FFF7FEFF 		bl	__aeabi_dmul
 587              	.LVL91:
 588 0290 8046     		mov	r8, r0
 589 0292 8946     		mov	r9, r1
 590 0294 C4EB0413 		rsb	r3, r4, r4, lsl #4
 591 0298 9800     		lsls	r0, r3, #2
 592 029a FFF7FEFF 		bl	__aeabi_i2d
 593              	.LVL92:
 594 029e 12A3     		adr	r3, .L55
 595 02a0 D3E90023 		ldrd	r2, [r3]
 596 02a4 FFF7FEFF 		bl	__aeabi_dmul
 597              	.LVL93:
 598 02a8 FFF7FEFF 		bl	__aeabi_d2iz
 599              	.LVL94:
 600 02ac 07B2     		sxth	r7, r0
 601 02ae 4046     		mov	r0, r8
 602 02b0 4946     		mov	r1, r9
 603 02b2 FFF7FEFF 		bl	__aeabi_d2iz
 604              	.LVL95:
 605 02b6 3946     		mov	r1, r7
 606 02b8 00B2     		sxth	r0, r0
 607 02ba FFF7FEFF 		bl	setSpeeds
 608              	.LVL96:
 129:main.c        ****          break;
 609              		.loc 1 129 0
ARM GAS  C:\Users\SZABMT~1\AppData\Local\Temp\cc92uOqK.s 			page 14


 610 02be 08E0     		b	.L38
 611              	.L37:
 130:main.c        ****         case NYEKK:setSpeeds(0,0);
 612              		.loc 1 130 0
 613 02c0 0021     		movs	r1, #0
 614 02c2 0846     		mov	r0, r1
 615 02c4 FFF7FEFF 		bl	setSpeeds
 616              	.LVL97:
 131:main.c        ****         break;
 617              		.loc 1 131 0
 618 02c8 03E0     		b	.L38
 619              	.L29:
 132:main.c        ****         default: setSpeeds(0,0);
 620              		.loc 1 132 0
 621 02ca 0021     		movs	r1, #0
 622 02cc 0846     		mov	r0, r1
 623 02ce FFF7FEFF 		bl	setSpeeds
 624              	.LVL98:
 625              	.L38:
 133:main.c        ****         break;
 134:main.c        ****           
 135:main.c        ****         }
 136:main.c        ****         if(MYTime()){;/*100 ms eltelte utan}*/}
 626              		.loc 1 136 0
 627 02d2 FFF7FEFF 		bl	MYTime
 628              	.LVL99:
 137:main.c        ****         LCD_ClearDisplay(); 
 629              		.loc 1 137 0
 630 02d6 0120     		movs	r0, #1
 631 02d8 FFF7FEFF 		bl	LCD_WriteControl
 632              	.LVL100:
 138:main.c        ****         BLED3_Write(startstat);
 633              		.loc 1 138 0
 634 02dc 3046     		mov	r0, r6
 635 02de FFF7FEFF 		bl	BLED3_Write
 636              	.LVL101:
 139:main.c        ****     }
 637              		.loc 1 139 0
 638 02e2 A1E6     		b	.L39
 639              	.L56:
 640 02e4 AFF30080 		.align	3
 641              	.L55:
 642 02e8 BA490C02 		.word	34359738
 643 02ec 2B87863F 		.word	1065781035
 644 02f0 00000000 		.word	.LANCHOR1
 645 02f4 05104000 		.word	4198405
 646              		.cfi_endproc
 647              	.LFE65:
 648              		.size	main, .-main
 649              		.global	tomb
 650              		.global	lastTime
 651              		.data
 652              		.align	2
 653              		.set	.LANCHOR1,. + 0
 654              		.type	tomb, %object
 655              		.size	tomb, 24
 656              	tomb:
ARM GAS  C:\Users\SZABMT~1\AppData\Local\Temp\cc92uOqK.s 			page 15


 657 0000 FF030000 		.word	1023
 658 0004 FF030000 		.word	1023
 659 0008 FF030000 		.word	1023
 660 000c FF030000 		.word	1023
 661 0010 FF030000 		.word	1023
 662 0014 FF030000 		.word	1023
 663              		.bss
 664              		.align	2
 665              		.set	.LANCHOR0,. + 0
 666              		.type	lastTime, %object
 667              		.size	lastTime, 4
 668              	lastTime:
 669 0000 00000000 		.space	4
 670              		.text
 671              	.Letext0:
 672              		.file 2 "c:\\program files (x86)\\cypress\\psoc creator\\4.2\\psoc creator\\import\\gnu\\arm\\5.4.
 673              		.file 3 "c:\\program files (x86)\\cypress\\psoc creator\\4.2\\psoc creator\\import\\gnu\\arm\\5.4.
 674              		.file 4 "Generated_Source\\PSoC5/cytypes.h"
 675              		.file 5 "Generated_Source\\PSoC5/core_cm3.h"
 676              		.file 6 "Generated_Source\\PSoC5/LEFT_PWM.h"
 677              		.file 7 "Generated_Source\\PSoC5/LEFT_MOTOR_DIR.h"
 678              		.file 8 "Generated_Source\\PSoC5/RIGHT_PWM.h"
 679              		.file 9 "Generated_Source\\PSoC5/RIGHT_MOTOR_DIR.h"
 680              		.file 10 "Generated_Source\\PSoC5/CyLib.h"
 681              		.file 11 "Generated_Source\\PSoC5/ADC_pot.h"
 682              		.file 12 "Generated_Source\\PSoC5/LCD.h"
 683              		.file 13 "Generated_Source\\PSoC5/BSTOPGOMB.h"
 684              		.file 14 "Generated_Source\\PSoC5/BSTARTGOMB.h"
 685              		.file 15 "Generated_Source\\PSoC5/IR_FL1.h"
 686              		.file 16 "Generated_Source\\PSoC5/IR_FR2.h"
 687              		.file 17 "Generated_Source\\PSoC5/BLED3.h"