ARM GAS  C:\Users\SZABMT~1\AppData\Local\Temp\cciE5hms.s 			page 1


   1              		.syntax unified
   2              		.cpu cortex-m3
   3              		.fpu softvfp
   4              		.eabi_attribute 20, 1
   5              		.eabi_attribute 21, 1
   6              		.eabi_attribute 23, 3
   7              		.eabi_attribute 24, 1
   8              		.eabi_attribute 25, 1
   9              		.eabi_attribute 26, 1
  10              		.eabi_attribute 30, 1
  11              		.eabi_attribute 34, 1
  12              		.eabi_attribute 18, 4
  13              		.thumb
  14              		.syntax unified
  15              		.file	"RIGHT_PWM.c"
  16              		.text
  17              	.Ltext0:
  18              		.cfi_sections	.debug_frame
  19              		.section	.text.RIGHT_PWM_Enable,"ax",%progbits
  20              		.align	2
  21              		.global	RIGHT_PWM_Enable
  22              		.thumb
  23              		.thumb_func
  24              		.type	RIGHT_PWM_Enable, %function
  25              	RIGHT_PWM_Enable:
  26              	.LFB2:
  27              		.file 1 "Generated_Source\\PSoC5\\RIGHT_PWM.c"
   1:Generated_Source\PSoC5/RIGHT_PWM.c **** /*******************************************************************************
   2:Generated_Source\PSoC5/RIGHT_PWM.c **** * File Name: RIGHT_PWM.c
   3:Generated_Source\PSoC5/RIGHT_PWM.c **** * Version 3.30
   4:Generated_Source\PSoC5/RIGHT_PWM.c **** *
   5:Generated_Source\PSoC5/RIGHT_PWM.c **** * Description:
   6:Generated_Source\PSoC5/RIGHT_PWM.c **** *  The PWM User Module consist of an 8 or 16-bit counter with two 8 or 16-bit
   7:Generated_Source\PSoC5/RIGHT_PWM.c **** *  comparitors. Each instance of this user module is capable of generating
   8:Generated_Source\PSoC5/RIGHT_PWM.c **** *  two PWM outputs with the same period. The pulse width is selectable between
   9:Generated_Source\PSoC5/RIGHT_PWM.c **** *  1 and 255/65535. The period is selectable between 2 and 255/65536 clocks.
  10:Generated_Source\PSoC5/RIGHT_PWM.c **** *  The compare value output may be configured to be active when the present
  11:Generated_Source\PSoC5/RIGHT_PWM.c **** *  counter is less than or less than/equal to the compare value.
  12:Generated_Source\PSoC5/RIGHT_PWM.c **** *  A terminal count output is also provided. It generates a pulse one clock
  13:Generated_Source\PSoC5/RIGHT_PWM.c **** *  width wide when the counter is equal to zero.
  14:Generated_Source\PSoC5/RIGHT_PWM.c **** *
  15:Generated_Source\PSoC5/RIGHT_PWM.c **** * Note:
  16:Generated_Source\PSoC5/RIGHT_PWM.c **** *
  17:Generated_Source\PSoC5/RIGHT_PWM.c **** *******************************************************************************
  18:Generated_Source\PSoC5/RIGHT_PWM.c **** * Copyright 2008-2014, Cypress Semiconductor Corporation.  All rights reserved.
  19:Generated_Source\PSoC5/RIGHT_PWM.c **** * You may use this file only in accordance with the license, terms, conditions,
  20:Generated_Source\PSoC5/RIGHT_PWM.c **** * disclaimers, and limitations in the end user license agreement accompanying
  21:Generated_Source\PSoC5/RIGHT_PWM.c **** * the software package with which this file was provided.
  22:Generated_Source\PSoC5/RIGHT_PWM.c **** ********************************************************************************/
  23:Generated_Source\PSoC5/RIGHT_PWM.c **** 
  24:Generated_Source\PSoC5/RIGHT_PWM.c **** #include "RIGHT_PWM.h"
  25:Generated_Source\PSoC5/RIGHT_PWM.c **** 
  26:Generated_Source\PSoC5/RIGHT_PWM.c **** /* Error message for removed <resource> through optimization */
  27:Generated_Source\PSoC5/RIGHT_PWM.c **** #ifdef RIGHT_PWM_PWMUDB_genblk1_ctrlreg__REMOVED
  28:Generated_Source\PSoC5/RIGHT_PWM.c ****     #error PWM_v3_30 detected with a constant 0 for the enable or \
  29:Generated_Source\PSoC5/RIGHT_PWM.c ****          constant 1 for reset. This will prevent the component from operating.
  30:Generated_Source\PSoC5/RIGHT_PWM.c **** #endif /* RIGHT_PWM_PWMUDB_genblk1_ctrlreg__REMOVED */
ARM GAS  C:\Users\SZABMT~1\AppData\Local\Temp\cciE5hms.s 			page 2


  31:Generated_Source\PSoC5/RIGHT_PWM.c **** 
  32:Generated_Source\PSoC5/RIGHT_PWM.c **** uint8 RIGHT_PWM_initVar = 0u;
  33:Generated_Source\PSoC5/RIGHT_PWM.c **** 
  34:Generated_Source\PSoC5/RIGHT_PWM.c **** 
  35:Generated_Source\PSoC5/RIGHT_PWM.c **** /*******************************************************************************
  36:Generated_Source\PSoC5/RIGHT_PWM.c **** * Function Name: RIGHT_PWM_Start
  37:Generated_Source\PSoC5/RIGHT_PWM.c **** ********************************************************************************
  38:Generated_Source\PSoC5/RIGHT_PWM.c **** *
  39:Generated_Source\PSoC5/RIGHT_PWM.c **** * Summary:
  40:Generated_Source\PSoC5/RIGHT_PWM.c **** *  The start function initializes the pwm with the default values, the
  41:Generated_Source\PSoC5/RIGHT_PWM.c **** *  enables the counter to begin counting.  It does not enable interrupts,
  42:Generated_Source\PSoC5/RIGHT_PWM.c **** *  the EnableInt command should be called if interrupt generation is required.
  43:Generated_Source\PSoC5/RIGHT_PWM.c **** *
  44:Generated_Source\PSoC5/RIGHT_PWM.c **** * Parameters:
  45:Generated_Source\PSoC5/RIGHT_PWM.c **** *  None
  46:Generated_Source\PSoC5/RIGHT_PWM.c **** *
  47:Generated_Source\PSoC5/RIGHT_PWM.c **** * Return:
  48:Generated_Source\PSoC5/RIGHT_PWM.c **** *  None
  49:Generated_Source\PSoC5/RIGHT_PWM.c **** *
  50:Generated_Source\PSoC5/RIGHT_PWM.c **** * Global variables:
  51:Generated_Source\PSoC5/RIGHT_PWM.c **** *  RIGHT_PWM_initVar: Is modified when this function is called for the
  52:Generated_Source\PSoC5/RIGHT_PWM.c **** *   first time. Is used to ensure that initialization happens only once.
  53:Generated_Source\PSoC5/RIGHT_PWM.c **** *
  54:Generated_Source\PSoC5/RIGHT_PWM.c **** *******************************************************************************/
  55:Generated_Source\PSoC5/RIGHT_PWM.c **** void RIGHT_PWM_Start(void) 
  56:Generated_Source\PSoC5/RIGHT_PWM.c **** {
  57:Generated_Source\PSoC5/RIGHT_PWM.c ****     /* If not Initialized then initialize all required hardware and software */
  58:Generated_Source\PSoC5/RIGHT_PWM.c ****     if(RIGHT_PWM_initVar == 0u)
  59:Generated_Source\PSoC5/RIGHT_PWM.c ****     {
  60:Generated_Source\PSoC5/RIGHT_PWM.c ****         RIGHT_PWM_Init();
  61:Generated_Source\PSoC5/RIGHT_PWM.c ****         RIGHT_PWM_initVar = 1u;
  62:Generated_Source\PSoC5/RIGHT_PWM.c ****     }
  63:Generated_Source\PSoC5/RIGHT_PWM.c ****     RIGHT_PWM_Enable();
  64:Generated_Source\PSoC5/RIGHT_PWM.c **** 
  65:Generated_Source\PSoC5/RIGHT_PWM.c **** }
  66:Generated_Source\PSoC5/RIGHT_PWM.c **** 
  67:Generated_Source\PSoC5/RIGHT_PWM.c **** 
  68:Generated_Source\PSoC5/RIGHT_PWM.c **** /*******************************************************************************
  69:Generated_Source\PSoC5/RIGHT_PWM.c **** * Function Name: RIGHT_PWM_Init
  70:Generated_Source\PSoC5/RIGHT_PWM.c **** ********************************************************************************
  71:Generated_Source\PSoC5/RIGHT_PWM.c **** *
  72:Generated_Source\PSoC5/RIGHT_PWM.c **** * Summary:
  73:Generated_Source\PSoC5/RIGHT_PWM.c **** *  Initialize component's parameters to the parameters set by user in the
  74:Generated_Source\PSoC5/RIGHT_PWM.c **** *  customizer of the component placed onto schematic. Usually called in
  75:Generated_Source\PSoC5/RIGHT_PWM.c **** *  RIGHT_PWM_Start().
  76:Generated_Source\PSoC5/RIGHT_PWM.c **** *
  77:Generated_Source\PSoC5/RIGHT_PWM.c **** * Parameters:
  78:Generated_Source\PSoC5/RIGHT_PWM.c **** *  None
  79:Generated_Source\PSoC5/RIGHT_PWM.c **** *
  80:Generated_Source\PSoC5/RIGHT_PWM.c **** * Return:
  81:Generated_Source\PSoC5/RIGHT_PWM.c **** *  None
  82:Generated_Source\PSoC5/RIGHT_PWM.c **** *
  83:Generated_Source\PSoC5/RIGHT_PWM.c **** *******************************************************************************/
  84:Generated_Source\PSoC5/RIGHT_PWM.c **** void RIGHT_PWM_Init(void) 
  85:Generated_Source\PSoC5/RIGHT_PWM.c **** {
  86:Generated_Source\PSoC5/RIGHT_PWM.c ****     #if (RIGHT_PWM_UsingFixedFunction || RIGHT_PWM_UseControl)
  87:Generated_Source\PSoC5/RIGHT_PWM.c ****         uint8 ctrl;
ARM GAS  C:\Users\SZABMT~1\AppData\Local\Temp\cciE5hms.s 			page 3


  88:Generated_Source\PSoC5/RIGHT_PWM.c ****     #endif /* (RIGHT_PWM_UsingFixedFunction || RIGHT_PWM_UseControl) */
  89:Generated_Source\PSoC5/RIGHT_PWM.c **** 
  90:Generated_Source\PSoC5/RIGHT_PWM.c ****     #if(!RIGHT_PWM_UsingFixedFunction)
  91:Generated_Source\PSoC5/RIGHT_PWM.c ****         #if(RIGHT_PWM_UseStatus)
  92:Generated_Source\PSoC5/RIGHT_PWM.c ****             /* Interrupt State Backup for Critical Region*/
  93:Generated_Source\PSoC5/RIGHT_PWM.c ****             uint8 RIGHT_PWM_interruptState;
  94:Generated_Source\PSoC5/RIGHT_PWM.c ****         #endif /* (RIGHT_PWM_UseStatus) */
  95:Generated_Source\PSoC5/RIGHT_PWM.c ****     #endif /* (!RIGHT_PWM_UsingFixedFunction) */
  96:Generated_Source\PSoC5/RIGHT_PWM.c **** 
  97:Generated_Source\PSoC5/RIGHT_PWM.c ****     #if (RIGHT_PWM_UsingFixedFunction)
  98:Generated_Source\PSoC5/RIGHT_PWM.c ****         /* You are allowed to write the compare value (FF only) */
  99:Generated_Source\PSoC5/RIGHT_PWM.c ****         RIGHT_PWM_CONTROL |= RIGHT_PWM_CFG0_MODE;
 100:Generated_Source\PSoC5/RIGHT_PWM.c ****         #if (RIGHT_PWM_DeadBand2_4)
 101:Generated_Source\PSoC5/RIGHT_PWM.c ****             RIGHT_PWM_CONTROL |= RIGHT_PWM_CFG0_DB;
 102:Generated_Source\PSoC5/RIGHT_PWM.c ****         #endif /* (RIGHT_PWM_DeadBand2_4) */
 103:Generated_Source\PSoC5/RIGHT_PWM.c **** 
 104:Generated_Source\PSoC5/RIGHT_PWM.c ****         ctrl = RIGHT_PWM_CONTROL3 & ((uint8 )(~RIGHT_PWM_CTRL_CMPMODE1_MASK));
 105:Generated_Source\PSoC5/RIGHT_PWM.c ****         RIGHT_PWM_CONTROL3 = ctrl | RIGHT_PWM_DEFAULT_COMPARE1_MODE;
 106:Generated_Source\PSoC5/RIGHT_PWM.c **** 
 107:Generated_Source\PSoC5/RIGHT_PWM.c ****          /* Clear and Set SYNCTC and SYNCCMP bits of RT1 register */
 108:Generated_Source\PSoC5/RIGHT_PWM.c ****         RIGHT_PWM_RT1 &= ((uint8)(~RIGHT_PWM_RT1_MASK));
 109:Generated_Source\PSoC5/RIGHT_PWM.c ****         RIGHT_PWM_RT1 |= RIGHT_PWM_SYNC;
 110:Generated_Source\PSoC5/RIGHT_PWM.c **** 
 111:Generated_Source\PSoC5/RIGHT_PWM.c ****         /*Enable DSI Sync all all inputs of the PWM*/
 112:Generated_Source\PSoC5/RIGHT_PWM.c ****         RIGHT_PWM_RT1 &= ((uint8)(~RIGHT_PWM_SYNCDSI_MASK));
 113:Generated_Source\PSoC5/RIGHT_PWM.c ****         RIGHT_PWM_RT1 |= RIGHT_PWM_SYNCDSI_EN;
 114:Generated_Source\PSoC5/RIGHT_PWM.c **** 
 115:Generated_Source\PSoC5/RIGHT_PWM.c ****     #elif (RIGHT_PWM_UseControl)
 116:Generated_Source\PSoC5/RIGHT_PWM.c ****         /* Set the default compare mode defined in the parameter */
 117:Generated_Source\PSoC5/RIGHT_PWM.c ****         ctrl = RIGHT_PWM_CONTROL & ((uint8)(~RIGHT_PWM_CTRL_CMPMODE2_MASK)) &
 118:Generated_Source\PSoC5/RIGHT_PWM.c ****                 ((uint8)(~RIGHT_PWM_CTRL_CMPMODE1_MASK));
 119:Generated_Source\PSoC5/RIGHT_PWM.c ****         RIGHT_PWM_CONTROL = ctrl | RIGHT_PWM_DEFAULT_COMPARE2_MODE |
 120:Generated_Source\PSoC5/RIGHT_PWM.c ****                                    RIGHT_PWM_DEFAULT_COMPARE1_MODE;
 121:Generated_Source\PSoC5/RIGHT_PWM.c ****     #endif /* (RIGHT_PWM_UsingFixedFunction) */
 122:Generated_Source\PSoC5/RIGHT_PWM.c **** 
 123:Generated_Source\PSoC5/RIGHT_PWM.c ****     #if (!RIGHT_PWM_UsingFixedFunction)
 124:Generated_Source\PSoC5/RIGHT_PWM.c ****         #if (RIGHT_PWM_Resolution == 8)
 125:Generated_Source\PSoC5/RIGHT_PWM.c ****             /* Set FIFO 0 to 1 byte register for period*/
 126:Generated_Source\PSoC5/RIGHT_PWM.c ****             RIGHT_PWM_AUX_CONTROLDP0 |= (RIGHT_PWM_AUX_CTRL_FIFO0_CLR);
 127:Generated_Source\PSoC5/RIGHT_PWM.c ****         #else /* (RIGHT_PWM_Resolution == 16)*/
 128:Generated_Source\PSoC5/RIGHT_PWM.c ****             /* Set FIFO 0 to 1 byte register for period */
 129:Generated_Source\PSoC5/RIGHT_PWM.c ****             RIGHT_PWM_AUX_CONTROLDP0 |= (RIGHT_PWM_AUX_CTRL_FIFO0_CLR);
 130:Generated_Source\PSoC5/RIGHT_PWM.c ****             RIGHT_PWM_AUX_CONTROLDP1 |= (RIGHT_PWM_AUX_CTRL_FIFO0_CLR);
 131:Generated_Source\PSoC5/RIGHT_PWM.c ****         #endif /* (RIGHT_PWM_Resolution == 8) */
 132:Generated_Source\PSoC5/RIGHT_PWM.c **** 
 133:Generated_Source\PSoC5/RIGHT_PWM.c ****         RIGHT_PWM_WriteCounter(RIGHT_PWM_INIT_PERIOD_VALUE);
 134:Generated_Source\PSoC5/RIGHT_PWM.c ****     #endif /* (!RIGHT_PWM_UsingFixedFunction) */
 135:Generated_Source\PSoC5/RIGHT_PWM.c **** 
 136:Generated_Source\PSoC5/RIGHT_PWM.c ****     RIGHT_PWM_WritePeriod(RIGHT_PWM_INIT_PERIOD_VALUE);
 137:Generated_Source\PSoC5/RIGHT_PWM.c **** 
 138:Generated_Source\PSoC5/RIGHT_PWM.c ****         #if (RIGHT_PWM_UseOneCompareMode)
 139:Generated_Source\PSoC5/RIGHT_PWM.c ****             RIGHT_PWM_WriteCompare(RIGHT_PWM_INIT_COMPARE_VALUE1);
 140:Generated_Source\PSoC5/RIGHT_PWM.c ****         #else
 141:Generated_Source\PSoC5/RIGHT_PWM.c ****             RIGHT_PWM_WriteCompare1(RIGHT_PWM_INIT_COMPARE_VALUE1);
 142:Generated_Source\PSoC5/RIGHT_PWM.c ****             RIGHT_PWM_WriteCompare2(RIGHT_PWM_INIT_COMPARE_VALUE2);
 143:Generated_Source\PSoC5/RIGHT_PWM.c ****         #endif /* (RIGHT_PWM_UseOneCompareMode) */
 144:Generated_Source\PSoC5/RIGHT_PWM.c **** 
ARM GAS  C:\Users\SZABMT~1\AppData\Local\Temp\cciE5hms.s 			page 4


 145:Generated_Source\PSoC5/RIGHT_PWM.c ****         #if (RIGHT_PWM_KillModeMinTime)
 146:Generated_Source\PSoC5/RIGHT_PWM.c ****             RIGHT_PWM_WriteKillTime(RIGHT_PWM_MinimumKillTime);
 147:Generated_Source\PSoC5/RIGHT_PWM.c ****         #endif /* (RIGHT_PWM_KillModeMinTime) */
 148:Generated_Source\PSoC5/RIGHT_PWM.c **** 
 149:Generated_Source\PSoC5/RIGHT_PWM.c ****         #if (RIGHT_PWM_DeadBandUsed)
 150:Generated_Source\PSoC5/RIGHT_PWM.c ****             RIGHT_PWM_WriteDeadTime(RIGHT_PWM_INIT_DEAD_TIME);
 151:Generated_Source\PSoC5/RIGHT_PWM.c ****         #endif /* (RIGHT_PWM_DeadBandUsed) */
 152:Generated_Source\PSoC5/RIGHT_PWM.c **** 
 153:Generated_Source\PSoC5/RIGHT_PWM.c ****     #if (RIGHT_PWM_UseStatus || RIGHT_PWM_UsingFixedFunction)
 154:Generated_Source\PSoC5/RIGHT_PWM.c ****         RIGHT_PWM_SetInterruptMode(RIGHT_PWM_INIT_INTERRUPTS_MODE);
 155:Generated_Source\PSoC5/RIGHT_PWM.c ****     #endif /* (RIGHT_PWM_UseStatus || RIGHT_PWM_UsingFixedFunction) */
 156:Generated_Source\PSoC5/RIGHT_PWM.c **** 
 157:Generated_Source\PSoC5/RIGHT_PWM.c ****     #if (RIGHT_PWM_UsingFixedFunction)
 158:Generated_Source\PSoC5/RIGHT_PWM.c ****         /* Globally Enable the Fixed Function Block chosen */
 159:Generated_Source\PSoC5/RIGHT_PWM.c ****         RIGHT_PWM_GLOBAL_ENABLE |= RIGHT_PWM_BLOCK_EN_MASK;
 160:Generated_Source\PSoC5/RIGHT_PWM.c ****         /* Set the Interrupt source to come from the status register */
 161:Generated_Source\PSoC5/RIGHT_PWM.c ****         RIGHT_PWM_CONTROL2 |= RIGHT_PWM_CTRL2_IRQ_SEL;
 162:Generated_Source\PSoC5/RIGHT_PWM.c ****     #else
 163:Generated_Source\PSoC5/RIGHT_PWM.c ****         #if(RIGHT_PWM_UseStatus)
 164:Generated_Source\PSoC5/RIGHT_PWM.c **** 
 165:Generated_Source\PSoC5/RIGHT_PWM.c ****             /* CyEnterCriticalRegion and CyExitCriticalRegion are used to mark following region cri
 166:Generated_Source\PSoC5/RIGHT_PWM.c ****             /* Enter Critical Region*/
 167:Generated_Source\PSoC5/RIGHT_PWM.c ****             RIGHT_PWM_interruptState = CyEnterCriticalSection();
 168:Generated_Source\PSoC5/RIGHT_PWM.c ****             /* Use the interrupt output of the status register for IRQ output */
 169:Generated_Source\PSoC5/RIGHT_PWM.c ****             RIGHT_PWM_STATUS_AUX_CTRL |= RIGHT_PWM_STATUS_ACTL_INT_EN_MASK;
 170:Generated_Source\PSoC5/RIGHT_PWM.c **** 
 171:Generated_Source\PSoC5/RIGHT_PWM.c ****              /* Exit Critical Region*/
 172:Generated_Source\PSoC5/RIGHT_PWM.c ****             CyExitCriticalSection(RIGHT_PWM_interruptState);
 173:Generated_Source\PSoC5/RIGHT_PWM.c **** 
 174:Generated_Source\PSoC5/RIGHT_PWM.c ****             /* Clear the FIFO to enable the RIGHT_PWM_STATUS_FIFOFULL
 175:Generated_Source\PSoC5/RIGHT_PWM.c ****                    bit to be set on FIFO full. */
 176:Generated_Source\PSoC5/RIGHT_PWM.c ****             RIGHT_PWM_ClearFIFO();
 177:Generated_Source\PSoC5/RIGHT_PWM.c ****         #endif /* (RIGHT_PWM_UseStatus) */
 178:Generated_Source\PSoC5/RIGHT_PWM.c ****     #endif /* (RIGHT_PWM_UsingFixedFunction) */
 179:Generated_Source\PSoC5/RIGHT_PWM.c **** }
 180:Generated_Source\PSoC5/RIGHT_PWM.c **** 
 181:Generated_Source\PSoC5/RIGHT_PWM.c **** 
 182:Generated_Source\PSoC5/RIGHT_PWM.c **** /*******************************************************************************
 183:Generated_Source\PSoC5/RIGHT_PWM.c **** * Function Name: RIGHT_PWM_Enable
 184:Generated_Source\PSoC5/RIGHT_PWM.c **** ********************************************************************************
 185:Generated_Source\PSoC5/RIGHT_PWM.c **** *
 186:Generated_Source\PSoC5/RIGHT_PWM.c **** * Summary:
 187:Generated_Source\PSoC5/RIGHT_PWM.c **** *  Enables the PWM block operation
 188:Generated_Source\PSoC5/RIGHT_PWM.c **** *
 189:Generated_Source\PSoC5/RIGHT_PWM.c **** * Parameters:
 190:Generated_Source\PSoC5/RIGHT_PWM.c **** *  None
 191:Generated_Source\PSoC5/RIGHT_PWM.c **** *
 192:Generated_Source\PSoC5/RIGHT_PWM.c **** * Return:
 193:Generated_Source\PSoC5/RIGHT_PWM.c **** *  None
 194:Generated_Source\PSoC5/RIGHT_PWM.c **** *
 195:Generated_Source\PSoC5/RIGHT_PWM.c **** * Side Effects:
 196:Generated_Source\PSoC5/RIGHT_PWM.c **** *  This works only if software enable mode is chosen
 197:Generated_Source\PSoC5/RIGHT_PWM.c **** *
 198:Generated_Source\PSoC5/RIGHT_PWM.c **** *******************************************************************************/
 199:Generated_Source\PSoC5/RIGHT_PWM.c **** void RIGHT_PWM_Enable(void) 
 200:Generated_Source\PSoC5/RIGHT_PWM.c **** {
  28              		.loc 1 200 0
ARM GAS  C:\Users\SZABMT~1\AppData\Local\Temp\cciE5hms.s 			page 5


  29              		.cfi_startproc
  30              		@ args = 0, pretend = 0, frame = 0
  31              		@ frame_needed = 0, uses_anonymous_args = 0
  32              		@ link register save eliminated.
 201:Generated_Source\PSoC5/RIGHT_PWM.c ****     /* Globally Enable the Fixed Function Block chosen */
 202:Generated_Source\PSoC5/RIGHT_PWM.c ****     #if (RIGHT_PWM_UsingFixedFunction)
 203:Generated_Source\PSoC5/RIGHT_PWM.c ****         RIGHT_PWM_GLOBAL_ENABLE |= RIGHT_PWM_BLOCK_EN_MASK;
  33              		.loc 1 203 0
  34 0000 084A     		ldr	r2, .L2
  35 0002 1378     		ldrb	r3, [r2]	@ zero_extendqisi2
  36 0004 43F00203 		orr	r3, r3, #2
  37 0008 1370     		strb	r3, [r2]
 204:Generated_Source\PSoC5/RIGHT_PWM.c ****         RIGHT_PWM_GLOBAL_STBY_ENABLE |= RIGHT_PWM_BLOCK_STBY_EN_MASK;
  38              		.loc 1 204 0
  39 000a 1032     		adds	r2, r2, #16
  40 000c 1378     		ldrb	r3, [r2]	@ zero_extendqisi2
  41 000e 43F00203 		orr	r3, r3, #2
  42 0012 1370     		strb	r3, [r2]
 205:Generated_Source\PSoC5/RIGHT_PWM.c ****     #endif /* (RIGHT_PWM_UsingFixedFunction) */
 206:Generated_Source\PSoC5/RIGHT_PWM.c **** 
 207:Generated_Source\PSoC5/RIGHT_PWM.c ****     /* Enable the PWM from the control register  */
 208:Generated_Source\PSoC5/RIGHT_PWM.c ****     #if (RIGHT_PWM_UseControl || RIGHT_PWM_UsingFixedFunction)
 209:Generated_Source\PSoC5/RIGHT_PWM.c ****         RIGHT_PWM_CONTROL |= RIGHT_PWM_CTRL_ENABLE;
  43              		.loc 1 209 0
  44 0014 02F65932 		addw	r2, r2, #2905
  45 0018 1378     		ldrb	r3, [r2]	@ zero_extendqisi2
  46 001a 43F00103 		orr	r3, r3, #1
  47 001e 1370     		strb	r3, [r2]
  48 0020 7047     		bx	lr
  49              	.L3:
  50 0022 00BF     		.align	2
  51              	.L2:
  52 0024 A3430040 		.word	1073759139
  53              		.cfi_endproc
  54              	.LFE2:
  55              		.size	RIGHT_PWM_Enable, .-RIGHT_PWM_Enable
  56              		.section	.text.RIGHT_PWM_Stop,"ax",%progbits
  57              		.align	2
  58              		.global	RIGHT_PWM_Stop
  59              		.thumb
  60              		.thumb_func
  61              		.type	RIGHT_PWM_Stop, %function
  62              	RIGHT_PWM_Stop:
  63              	.LFB3:
 210:Generated_Source\PSoC5/RIGHT_PWM.c ****     #endif /* (RIGHT_PWM_UseControl || RIGHT_PWM_UsingFixedFunction) */
 211:Generated_Source\PSoC5/RIGHT_PWM.c **** }
 212:Generated_Source\PSoC5/RIGHT_PWM.c **** 
 213:Generated_Source\PSoC5/RIGHT_PWM.c **** 
 214:Generated_Source\PSoC5/RIGHT_PWM.c **** /*******************************************************************************
 215:Generated_Source\PSoC5/RIGHT_PWM.c **** * Function Name: RIGHT_PWM_Stop
 216:Generated_Source\PSoC5/RIGHT_PWM.c **** ********************************************************************************
 217:Generated_Source\PSoC5/RIGHT_PWM.c **** *
 218:Generated_Source\PSoC5/RIGHT_PWM.c **** * Summary:
 219:Generated_Source\PSoC5/RIGHT_PWM.c **** *  The stop function halts the PWM, but does not change any modes or disable
 220:Generated_Source\PSoC5/RIGHT_PWM.c **** *  interrupts.
 221:Generated_Source\PSoC5/RIGHT_PWM.c **** *
 222:Generated_Source\PSoC5/RIGHT_PWM.c **** * Parameters:
ARM GAS  C:\Users\SZABMT~1\AppData\Local\Temp\cciE5hms.s 			page 6


 223:Generated_Source\PSoC5/RIGHT_PWM.c **** *  None
 224:Generated_Source\PSoC5/RIGHT_PWM.c **** *
 225:Generated_Source\PSoC5/RIGHT_PWM.c **** * Return:
 226:Generated_Source\PSoC5/RIGHT_PWM.c **** *  None
 227:Generated_Source\PSoC5/RIGHT_PWM.c **** *
 228:Generated_Source\PSoC5/RIGHT_PWM.c **** * Side Effects:
 229:Generated_Source\PSoC5/RIGHT_PWM.c **** *  If the Enable mode is set to Hardware only then this function
 230:Generated_Source\PSoC5/RIGHT_PWM.c **** *  has no effect on the operation of the PWM
 231:Generated_Source\PSoC5/RIGHT_PWM.c **** *
 232:Generated_Source\PSoC5/RIGHT_PWM.c **** *******************************************************************************/
 233:Generated_Source\PSoC5/RIGHT_PWM.c **** void RIGHT_PWM_Stop(void) 
 234:Generated_Source\PSoC5/RIGHT_PWM.c **** {
  64              		.loc 1 234 0
  65              		.cfi_startproc
  66              		@ args = 0, pretend = 0, frame = 0
  67              		@ frame_needed = 0, uses_anonymous_args = 0
  68              		@ link register save eliminated.
 235:Generated_Source\PSoC5/RIGHT_PWM.c ****     #if (RIGHT_PWM_UseControl || RIGHT_PWM_UsingFixedFunction)
 236:Generated_Source\PSoC5/RIGHT_PWM.c ****         RIGHT_PWM_CONTROL &= ((uint8)(~RIGHT_PWM_CTRL_ENABLE));
  69              		.loc 1 236 0
  70 0000 084A     		ldr	r2, .L5
  71 0002 1378     		ldrb	r3, [r2]	@ zero_extendqisi2
  72 0004 03F0FE03 		and	r3, r3, #254
  73 0008 1370     		strb	r3, [r2]
 237:Generated_Source\PSoC5/RIGHT_PWM.c ****     #endif /* (RIGHT_PWM_UseControl || RIGHT_PWM_UsingFixedFunction) */
 238:Generated_Source\PSoC5/RIGHT_PWM.c **** 
 239:Generated_Source\PSoC5/RIGHT_PWM.c ****     /* Globally disable the Fixed Function Block chosen */
 240:Generated_Source\PSoC5/RIGHT_PWM.c ****     #if (RIGHT_PWM_UsingFixedFunction)
 241:Generated_Source\PSoC5/RIGHT_PWM.c ****         RIGHT_PWM_GLOBAL_ENABLE &= ((uint8)(~RIGHT_PWM_BLOCK_EN_MASK));
  74              		.loc 1 241 0
  75 000a A2F66932 		subw	r2, r2, #2921
  76 000e 1378     		ldrb	r3, [r2]	@ zero_extendqisi2
  77 0010 03F0FD03 		and	r3, r3, #253
  78 0014 1370     		strb	r3, [r2]
 242:Generated_Source\PSoC5/RIGHT_PWM.c ****         RIGHT_PWM_GLOBAL_STBY_ENABLE &= ((uint8)(~RIGHT_PWM_BLOCK_STBY_EN_MASK));
  79              		.loc 1 242 0
  80 0016 1032     		adds	r2, r2, #16
  81 0018 1378     		ldrb	r3, [r2]	@ zero_extendqisi2
  82 001a 03F0FD03 		and	r3, r3, #253
  83 001e 1370     		strb	r3, [r2]
  84 0020 7047     		bx	lr
  85              	.L6:
  86 0022 00BF     		.align	2
  87              	.L5:
  88 0024 0C4F0040 		.word	1073762060
  89              		.cfi_endproc
  90              	.LFE3:
  91              		.size	RIGHT_PWM_Stop, .-RIGHT_PWM_Stop
  92              		.section	.text.RIGHT_PWM_WritePeriod,"ax",%progbits
  93              		.align	2
  94              		.global	RIGHT_PWM_WritePeriod
  95              		.thumb
  96              		.thumb_func
  97              		.type	RIGHT_PWM_WritePeriod, %function
  98              	RIGHT_PWM_WritePeriod:
  99              	.LFB4:
 243:Generated_Source\PSoC5/RIGHT_PWM.c ****     #endif /* (RIGHT_PWM_UsingFixedFunction) */
ARM GAS  C:\Users\SZABMT~1\AppData\Local\Temp\cciE5hms.s 			page 7


 244:Generated_Source\PSoC5/RIGHT_PWM.c **** }
 245:Generated_Source\PSoC5/RIGHT_PWM.c **** 
 246:Generated_Source\PSoC5/RIGHT_PWM.c **** #if (RIGHT_PWM_UseOneCompareMode)
 247:Generated_Source\PSoC5/RIGHT_PWM.c ****     #if (RIGHT_PWM_CompareMode1SW)
 248:Generated_Source\PSoC5/RIGHT_PWM.c **** 
 249:Generated_Source\PSoC5/RIGHT_PWM.c **** 
 250:Generated_Source\PSoC5/RIGHT_PWM.c ****         /*******************************************************************************
 251:Generated_Source\PSoC5/RIGHT_PWM.c ****         * Function Name: RIGHT_PWM_SetCompareMode
 252:Generated_Source\PSoC5/RIGHT_PWM.c ****         ********************************************************************************
 253:Generated_Source\PSoC5/RIGHT_PWM.c ****         *
 254:Generated_Source\PSoC5/RIGHT_PWM.c ****         * Summary:
 255:Generated_Source\PSoC5/RIGHT_PWM.c ****         *  This function writes the Compare Mode for the pwm output when in Dither mode,
 256:Generated_Source\PSoC5/RIGHT_PWM.c ****         *  Center Align Mode or One Output Mode.
 257:Generated_Source\PSoC5/RIGHT_PWM.c ****         *
 258:Generated_Source\PSoC5/RIGHT_PWM.c ****         * Parameters:
 259:Generated_Source\PSoC5/RIGHT_PWM.c ****         *  comparemode:  The new compare mode for the PWM output. Use the compare types
 260:Generated_Source\PSoC5/RIGHT_PWM.c ****         *                defined in the H file as input arguments.
 261:Generated_Source\PSoC5/RIGHT_PWM.c ****         *
 262:Generated_Source\PSoC5/RIGHT_PWM.c ****         * Return:
 263:Generated_Source\PSoC5/RIGHT_PWM.c ****         *  None
 264:Generated_Source\PSoC5/RIGHT_PWM.c ****         *
 265:Generated_Source\PSoC5/RIGHT_PWM.c ****         *******************************************************************************/
 266:Generated_Source\PSoC5/RIGHT_PWM.c ****         void RIGHT_PWM_SetCompareMode(uint8 comparemode) 
 267:Generated_Source\PSoC5/RIGHT_PWM.c ****         {
 268:Generated_Source\PSoC5/RIGHT_PWM.c ****             #if(RIGHT_PWM_UsingFixedFunction)
 269:Generated_Source\PSoC5/RIGHT_PWM.c **** 
 270:Generated_Source\PSoC5/RIGHT_PWM.c ****                 #if(0 != RIGHT_PWM_CTRL_CMPMODE1_SHIFT)
 271:Generated_Source\PSoC5/RIGHT_PWM.c ****                     uint8 comparemodemasked = ((uint8)((uint8)comparemode << RIGHT_PWM_CTRL_CMPMODE
 272:Generated_Source\PSoC5/RIGHT_PWM.c ****                 #else
 273:Generated_Source\PSoC5/RIGHT_PWM.c ****                     uint8 comparemodemasked = comparemode;
 274:Generated_Source\PSoC5/RIGHT_PWM.c ****                 #endif /* (0 != RIGHT_PWM_CTRL_CMPMODE1_SHIFT) */
 275:Generated_Source\PSoC5/RIGHT_PWM.c **** 
 276:Generated_Source\PSoC5/RIGHT_PWM.c ****                 RIGHT_PWM_CONTROL3 &= ((uint8)(~RIGHT_PWM_CTRL_CMPMODE1_MASK)); /*Clear Existing Da
 277:Generated_Source\PSoC5/RIGHT_PWM.c ****                 RIGHT_PWM_CONTROL3 |= comparemodemasked;
 278:Generated_Source\PSoC5/RIGHT_PWM.c **** 
 279:Generated_Source\PSoC5/RIGHT_PWM.c ****             #elif (RIGHT_PWM_UseControl)
 280:Generated_Source\PSoC5/RIGHT_PWM.c **** 
 281:Generated_Source\PSoC5/RIGHT_PWM.c ****                 #if(0 != RIGHT_PWM_CTRL_CMPMODE1_SHIFT)
 282:Generated_Source\PSoC5/RIGHT_PWM.c ****                     uint8 comparemode1masked = ((uint8)((uint8)comparemode << RIGHT_PWM_CTRL_CMPMOD
 283:Generated_Source\PSoC5/RIGHT_PWM.c ****                                                 RIGHT_PWM_CTRL_CMPMODE1_MASK;
 284:Generated_Source\PSoC5/RIGHT_PWM.c ****                 #else
 285:Generated_Source\PSoC5/RIGHT_PWM.c ****                     uint8 comparemode1masked = comparemode & RIGHT_PWM_CTRL_CMPMODE1_MASK;
 286:Generated_Source\PSoC5/RIGHT_PWM.c ****                 #endif /* (0 != RIGHT_PWM_CTRL_CMPMODE1_SHIFT) */
 287:Generated_Source\PSoC5/RIGHT_PWM.c **** 
 288:Generated_Source\PSoC5/RIGHT_PWM.c ****                 #if(0 != RIGHT_PWM_CTRL_CMPMODE2_SHIFT)
 289:Generated_Source\PSoC5/RIGHT_PWM.c ****                     uint8 comparemode2masked = ((uint8)((uint8)comparemode << RIGHT_PWM_CTRL_CMPMOD
 290:Generated_Source\PSoC5/RIGHT_PWM.c ****                                                RIGHT_PWM_CTRL_CMPMODE2_MASK;
 291:Generated_Source\PSoC5/RIGHT_PWM.c ****                 #else
 292:Generated_Source\PSoC5/RIGHT_PWM.c ****                     uint8 comparemode2masked = comparemode & RIGHT_PWM_CTRL_CMPMODE2_MASK;
 293:Generated_Source\PSoC5/RIGHT_PWM.c ****                 #endif /* (0 != RIGHT_PWM_CTRL_CMPMODE2_SHIFT) */
 294:Generated_Source\PSoC5/RIGHT_PWM.c **** 
 295:Generated_Source\PSoC5/RIGHT_PWM.c ****                 /*Clear existing mode */
 296:Generated_Source\PSoC5/RIGHT_PWM.c ****                 RIGHT_PWM_CONTROL &= ((uint8)(~(RIGHT_PWM_CTRL_CMPMODE1_MASK |
 297:Generated_Source\PSoC5/RIGHT_PWM.c ****                                             RIGHT_PWM_CTRL_CMPMODE2_MASK)));
 298:Generated_Source\PSoC5/RIGHT_PWM.c ****                 RIGHT_PWM_CONTROL |= (comparemode1masked | comparemode2masked);
 299:Generated_Source\PSoC5/RIGHT_PWM.c **** 
 300:Generated_Source\PSoC5/RIGHT_PWM.c ****             #else
ARM GAS  C:\Users\SZABMT~1\AppData\Local\Temp\cciE5hms.s 			page 8


 301:Generated_Source\PSoC5/RIGHT_PWM.c ****                 uint8 temp = comparemode;
 302:Generated_Source\PSoC5/RIGHT_PWM.c ****             #endif /* (RIGHT_PWM_UsingFixedFunction) */
 303:Generated_Source\PSoC5/RIGHT_PWM.c ****         }
 304:Generated_Source\PSoC5/RIGHT_PWM.c ****     #endif /* RIGHT_PWM_CompareMode1SW */
 305:Generated_Source\PSoC5/RIGHT_PWM.c **** 
 306:Generated_Source\PSoC5/RIGHT_PWM.c **** #else /* UseOneCompareMode */
 307:Generated_Source\PSoC5/RIGHT_PWM.c **** 
 308:Generated_Source\PSoC5/RIGHT_PWM.c ****     #if (RIGHT_PWM_CompareMode1SW)
 309:Generated_Source\PSoC5/RIGHT_PWM.c **** 
 310:Generated_Source\PSoC5/RIGHT_PWM.c **** 
 311:Generated_Source\PSoC5/RIGHT_PWM.c ****         /*******************************************************************************
 312:Generated_Source\PSoC5/RIGHT_PWM.c ****         * Function Name: RIGHT_PWM_SetCompareMode1
 313:Generated_Source\PSoC5/RIGHT_PWM.c ****         ********************************************************************************
 314:Generated_Source\PSoC5/RIGHT_PWM.c ****         *
 315:Generated_Source\PSoC5/RIGHT_PWM.c ****         * Summary:
 316:Generated_Source\PSoC5/RIGHT_PWM.c ****         *  This function writes the Compare Mode for the pwm or pwm1 output
 317:Generated_Source\PSoC5/RIGHT_PWM.c ****         *
 318:Generated_Source\PSoC5/RIGHT_PWM.c ****         * Parameters:
 319:Generated_Source\PSoC5/RIGHT_PWM.c ****         *  comparemode:  The new compare mode for the PWM output. Use the compare types
 320:Generated_Source\PSoC5/RIGHT_PWM.c ****         *                defined in the H file as input arguments.
 321:Generated_Source\PSoC5/RIGHT_PWM.c ****         *
 322:Generated_Source\PSoC5/RIGHT_PWM.c ****         * Return:
 323:Generated_Source\PSoC5/RIGHT_PWM.c ****         *  None
 324:Generated_Source\PSoC5/RIGHT_PWM.c ****         *
 325:Generated_Source\PSoC5/RIGHT_PWM.c ****         *******************************************************************************/
 326:Generated_Source\PSoC5/RIGHT_PWM.c ****         void RIGHT_PWM_SetCompareMode1(uint8 comparemode) 
 327:Generated_Source\PSoC5/RIGHT_PWM.c ****         {
 328:Generated_Source\PSoC5/RIGHT_PWM.c ****             #if(0 != RIGHT_PWM_CTRL_CMPMODE1_SHIFT)
 329:Generated_Source\PSoC5/RIGHT_PWM.c ****                 uint8 comparemodemasked = ((uint8)((uint8)comparemode << RIGHT_PWM_CTRL_CMPMODE1_SH
 330:Generated_Source\PSoC5/RIGHT_PWM.c ****                                            RIGHT_PWM_CTRL_CMPMODE1_MASK;
 331:Generated_Source\PSoC5/RIGHT_PWM.c ****             #else
 332:Generated_Source\PSoC5/RIGHT_PWM.c ****                 uint8 comparemodemasked = comparemode & RIGHT_PWM_CTRL_CMPMODE1_MASK;
 333:Generated_Source\PSoC5/RIGHT_PWM.c ****             #endif /* (0 != RIGHT_PWM_CTRL_CMPMODE1_SHIFT) */
 334:Generated_Source\PSoC5/RIGHT_PWM.c **** 
 335:Generated_Source\PSoC5/RIGHT_PWM.c ****             #if (RIGHT_PWM_UseControl)
 336:Generated_Source\PSoC5/RIGHT_PWM.c ****                 RIGHT_PWM_CONTROL &= ((uint8)(~RIGHT_PWM_CTRL_CMPMODE1_MASK)); /*Clear existing mod
 337:Generated_Source\PSoC5/RIGHT_PWM.c ****                 RIGHT_PWM_CONTROL |= comparemodemasked;
 338:Generated_Source\PSoC5/RIGHT_PWM.c ****             #endif /* (RIGHT_PWM_UseControl) */
 339:Generated_Source\PSoC5/RIGHT_PWM.c ****         }
 340:Generated_Source\PSoC5/RIGHT_PWM.c ****     #endif /* RIGHT_PWM_CompareMode1SW */
 341:Generated_Source\PSoC5/RIGHT_PWM.c **** 
 342:Generated_Source\PSoC5/RIGHT_PWM.c **** #if (RIGHT_PWM_CompareMode2SW)
 343:Generated_Source\PSoC5/RIGHT_PWM.c **** 
 344:Generated_Source\PSoC5/RIGHT_PWM.c **** 
 345:Generated_Source\PSoC5/RIGHT_PWM.c ****     /*******************************************************************************
 346:Generated_Source\PSoC5/RIGHT_PWM.c ****     * Function Name: RIGHT_PWM_SetCompareMode2
 347:Generated_Source\PSoC5/RIGHT_PWM.c ****     ********************************************************************************
 348:Generated_Source\PSoC5/RIGHT_PWM.c ****     *
 349:Generated_Source\PSoC5/RIGHT_PWM.c ****     * Summary:
 350:Generated_Source\PSoC5/RIGHT_PWM.c ****     *  This function writes the Compare Mode for the pwm or pwm2 output
 351:Generated_Source\PSoC5/RIGHT_PWM.c ****     *
 352:Generated_Source\PSoC5/RIGHT_PWM.c ****     * Parameters:
 353:Generated_Source\PSoC5/RIGHT_PWM.c ****     *  comparemode:  The new compare mode for the PWM output. Use the compare types
 354:Generated_Source\PSoC5/RIGHT_PWM.c ****     *                defined in the H file as input arguments.
 355:Generated_Source\PSoC5/RIGHT_PWM.c ****     *
 356:Generated_Source\PSoC5/RIGHT_PWM.c ****     * Return:
 357:Generated_Source\PSoC5/RIGHT_PWM.c ****     *  None
ARM GAS  C:\Users\SZABMT~1\AppData\Local\Temp\cciE5hms.s 			page 9


 358:Generated_Source\PSoC5/RIGHT_PWM.c ****     *
 359:Generated_Source\PSoC5/RIGHT_PWM.c ****     *******************************************************************************/
 360:Generated_Source\PSoC5/RIGHT_PWM.c ****     void RIGHT_PWM_SetCompareMode2(uint8 comparemode) 
 361:Generated_Source\PSoC5/RIGHT_PWM.c ****     {
 362:Generated_Source\PSoC5/RIGHT_PWM.c **** 
 363:Generated_Source\PSoC5/RIGHT_PWM.c ****         #if(0 != RIGHT_PWM_CTRL_CMPMODE2_SHIFT)
 364:Generated_Source\PSoC5/RIGHT_PWM.c ****             uint8 comparemodemasked = ((uint8)((uint8)comparemode << RIGHT_PWM_CTRL_CMPMODE2_SHIFT)
 365:Generated_Source\PSoC5/RIGHT_PWM.c ****                                                  RIGHT_PWM_CTRL_CMPMODE2_MASK;
 366:Generated_Source\PSoC5/RIGHT_PWM.c ****         #else
 367:Generated_Source\PSoC5/RIGHT_PWM.c ****             uint8 comparemodemasked = comparemode & RIGHT_PWM_CTRL_CMPMODE2_MASK;
 368:Generated_Source\PSoC5/RIGHT_PWM.c ****         #endif /* (0 != RIGHT_PWM_CTRL_CMPMODE2_SHIFT) */
 369:Generated_Source\PSoC5/RIGHT_PWM.c **** 
 370:Generated_Source\PSoC5/RIGHT_PWM.c ****         #if (RIGHT_PWM_UseControl)
 371:Generated_Source\PSoC5/RIGHT_PWM.c ****             RIGHT_PWM_CONTROL &= ((uint8)(~RIGHT_PWM_CTRL_CMPMODE2_MASK)); /*Clear existing mode */
 372:Generated_Source\PSoC5/RIGHT_PWM.c ****             RIGHT_PWM_CONTROL |= comparemodemasked;
 373:Generated_Source\PSoC5/RIGHT_PWM.c ****         #endif /* (RIGHT_PWM_UseControl) */
 374:Generated_Source\PSoC5/RIGHT_PWM.c ****     }
 375:Generated_Source\PSoC5/RIGHT_PWM.c ****     #endif /*RIGHT_PWM_CompareMode2SW */
 376:Generated_Source\PSoC5/RIGHT_PWM.c **** 
 377:Generated_Source\PSoC5/RIGHT_PWM.c **** #endif /* UseOneCompareMode */
 378:Generated_Source\PSoC5/RIGHT_PWM.c **** 
 379:Generated_Source\PSoC5/RIGHT_PWM.c **** 
 380:Generated_Source\PSoC5/RIGHT_PWM.c **** #if (!RIGHT_PWM_UsingFixedFunction)
 381:Generated_Source\PSoC5/RIGHT_PWM.c **** 
 382:Generated_Source\PSoC5/RIGHT_PWM.c **** 
 383:Generated_Source\PSoC5/RIGHT_PWM.c ****     /*******************************************************************************
 384:Generated_Source\PSoC5/RIGHT_PWM.c ****     * Function Name: RIGHT_PWM_WriteCounter
 385:Generated_Source\PSoC5/RIGHT_PWM.c ****     ********************************************************************************
 386:Generated_Source\PSoC5/RIGHT_PWM.c ****     *
 387:Generated_Source\PSoC5/RIGHT_PWM.c ****     * Summary:
 388:Generated_Source\PSoC5/RIGHT_PWM.c ****     *  Writes a new counter value directly to the counter register. This will be
 389:Generated_Source\PSoC5/RIGHT_PWM.c ****     *  implemented for that currently running period and only that period. This API
 390:Generated_Source\PSoC5/RIGHT_PWM.c ****     *  is valid only for UDB implementation and not available for fixed function
 391:Generated_Source\PSoC5/RIGHT_PWM.c ****     *  PWM implementation.
 392:Generated_Source\PSoC5/RIGHT_PWM.c ****     *
 393:Generated_Source\PSoC5/RIGHT_PWM.c ****     * Parameters:
 394:Generated_Source\PSoC5/RIGHT_PWM.c ****     *  counter:  The period new period counter value.
 395:Generated_Source\PSoC5/RIGHT_PWM.c ****     *
 396:Generated_Source\PSoC5/RIGHT_PWM.c ****     * Return:
 397:Generated_Source\PSoC5/RIGHT_PWM.c ****     *  None
 398:Generated_Source\PSoC5/RIGHT_PWM.c ****     *
 399:Generated_Source\PSoC5/RIGHT_PWM.c ****     * Side Effects:
 400:Generated_Source\PSoC5/RIGHT_PWM.c ****     *  The PWM Period will be reloaded when a counter value will be a zero
 401:Generated_Source\PSoC5/RIGHT_PWM.c ****     *
 402:Generated_Source\PSoC5/RIGHT_PWM.c ****     *******************************************************************************/
 403:Generated_Source\PSoC5/RIGHT_PWM.c ****     void RIGHT_PWM_WriteCounter(uint8 counter) \
 404:Generated_Source\PSoC5/RIGHT_PWM.c ****                                        
 405:Generated_Source\PSoC5/RIGHT_PWM.c ****     {
 406:Generated_Source\PSoC5/RIGHT_PWM.c ****         CY_SET_REG8(RIGHT_PWM_COUNTER_LSB_PTR, counter);
 407:Generated_Source\PSoC5/RIGHT_PWM.c ****     }
 408:Generated_Source\PSoC5/RIGHT_PWM.c **** 
 409:Generated_Source\PSoC5/RIGHT_PWM.c **** 
 410:Generated_Source\PSoC5/RIGHT_PWM.c ****     /*******************************************************************************
 411:Generated_Source\PSoC5/RIGHT_PWM.c ****     * Function Name: RIGHT_PWM_ReadCounter
 412:Generated_Source\PSoC5/RIGHT_PWM.c ****     ********************************************************************************
 413:Generated_Source\PSoC5/RIGHT_PWM.c ****     *
 414:Generated_Source\PSoC5/RIGHT_PWM.c ****     * Summary:
ARM GAS  C:\Users\SZABMT~1\AppData\Local\Temp\cciE5hms.s 			page 10


 415:Generated_Source\PSoC5/RIGHT_PWM.c ****     *  This function returns the current value of the counter.  It doesn't matter
 416:Generated_Source\PSoC5/RIGHT_PWM.c ****     *  if the counter is enabled or running.
 417:Generated_Source\PSoC5/RIGHT_PWM.c ****     *
 418:Generated_Source\PSoC5/RIGHT_PWM.c ****     * Parameters:
 419:Generated_Source\PSoC5/RIGHT_PWM.c ****     *  None
 420:Generated_Source\PSoC5/RIGHT_PWM.c ****     *
 421:Generated_Source\PSoC5/RIGHT_PWM.c ****     * Return:
 422:Generated_Source\PSoC5/RIGHT_PWM.c ****     *  The current value of the counter.
 423:Generated_Source\PSoC5/RIGHT_PWM.c ****     *
 424:Generated_Source\PSoC5/RIGHT_PWM.c ****     *******************************************************************************/
 425:Generated_Source\PSoC5/RIGHT_PWM.c ****     uint8 RIGHT_PWM_ReadCounter(void) 
 426:Generated_Source\PSoC5/RIGHT_PWM.c ****     {
 427:Generated_Source\PSoC5/RIGHT_PWM.c ****         /* Force capture by reading Accumulator */
 428:Generated_Source\PSoC5/RIGHT_PWM.c ****         /* Must first do a software capture to be able to read the counter */
 429:Generated_Source\PSoC5/RIGHT_PWM.c ****         /* It is up to the user code to make sure there isn't already captured data in the FIFO */
 430:Generated_Source\PSoC5/RIGHT_PWM.c ****           (void)CY_GET_REG8(RIGHT_PWM_COUNTERCAP_LSB_PTR_8BIT);
 431:Generated_Source\PSoC5/RIGHT_PWM.c **** 
 432:Generated_Source\PSoC5/RIGHT_PWM.c ****         /* Read the data from the FIFO */
 433:Generated_Source\PSoC5/RIGHT_PWM.c ****         return (CY_GET_REG8(RIGHT_PWM_CAPTURE_LSB_PTR));
 434:Generated_Source\PSoC5/RIGHT_PWM.c ****     }
 435:Generated_Source\PSoC5/RIGHT_PWM.c **** 
 436:Generated_Source\PSoC5/RIGHT_PWM.c ****     #if (RIGHT_PWM_UseStatus)
 437:Generated_Source\PSoC5/RIGHT_PWM.c **** 
 438:Generated_Source\PSoC5/RIGHT_PWM.c **** 
 439:Generated_Source\PSoC5/RIGHT_PWM.c ****         /*******************************************************************************
 440:Generated_Source\PSoC5/RIGHT_PWM.c ****         * Function Name: RIGHT_PWM_ClearFIFO
 441:Generated_Source\PSoC5/RIGHT_PWM.c ****         ********************************************************************************
 442:Generated_Source\PSoC5/RIGHT_PWM.c ****         *
 443:Generated_Source\PSoC5/RIGHT_PWM.c ****         * Summary:
 444:Generated_Source\PSoC5/RIGHT_PWM.c ****         *  This function clears all capture data from the capture FIFO
 445:Generated_Source\PSoC5/RIGHT_PWM.c ****         *
 446:Generated_Source\PSoC5/RIGHT_PWM.c ****         * Parameters:
 447:Generated_Source\PSoC5/RIGHT_PWM.c ****         *  None
 448:Generated_Source\PSoC5/RIGHT_PWM.c ****         *
 449:Generated_Source\PSoC5/RIGHT_PWM.c ****         * Return:
 450:Generated_Source\PSoC5/RIGHT_PWM.c ****         *  None
 451:Generated_Source\PSoC5/RIGHT_PWM.c ****         *
 452:Generated_Source\PSoC5/RIGHT_PWM.c ****         *******************************************************************************/
 453:Generated_Source\PSoC5/RIGHT_PWM.c ****         void RIGHT_PWM_ClearFIFO(void) 
 454:Generated_Source\PSoC5/RIGHT_PWM.c ****         {
 455:Generated_Source\PSoC5/RIGHT_PWM.c ****             while(0u != (RIGHT_PWM_ReadStatusRegister() & RIGHT_PWM_STATUS_FIFONEMPTY))
 456:Generated_Source\PSoC5/RIGHT_PWM.c ****             {
 457:Generated_Source\PSoC5/RIGHT_PWM.c ****                 (void)RIGHT_PWM_ReadCapture();
 458:Generated_Source\PSoC5/RIGHT_PWM.c ****             }
 459:Generated_Source\PSoC5/RIGHT_PWM.c ****         }
 460:Generated_Source\PSoC5/RIGHT_PWM.c **** 
 461:Generated_Source\PSoC5/RIGHT_PWM.c ****     #endif /* RIGHT_PWM_UseStatus */
 462:Generated_Source\PSoC5/RIGHT_PWM.c **** 
 463:Generated_Source\PSoC5/RIGHT_PWM.c **** #endif /* !RIGHT_PWM_UsingFixedFunction */
 464:Generated_Source\PSoC5/RIGHT_PWM.c **** 
 465:Generated_Source\PSoC5/RIGHT_PWM.c **** 
 466:Generated_Source\PSoC5/RIGHT_PWM.c **** /*******************************************************************************
 467:Generated_Source\PSoC5/RIGHT_PWM.c **** * Function Name: RIGHT_PWM_WritePeriod
 468:Generated_Source\PSoC5/RIGHT_PWM.c **** ********************************************************************************
 469:Generated_Source\PSoC5/RIGHT_PWM.c **** *
 470:Generated_Source\PSoC5/RIGHT_PWM.c **** * Summary:
 471:Generated_Source\PSoC5/RIGHT_PWM.c **** *  This function is used to change the period of the counter.  The new period
ARM GAS  C:\Users\SZABMT~1\AppData\Local\Temp\cciE5hms.s 			page 11


 472:Generated_Source\PSoC5/RIGHT_PWM.c **** *  will be loaded the next time terminal count is detected.
 473:Generated_Source\PSoC5/RIGHT_PWM.c **** *
 474:Generated_Source\PSoC5/RIGHT_PWM.c **** * Parameters:
 475:Generated_Source\PSoC5/RIGHT_PWM.c **** *  period:  Period value. May be between 1 and (2^Resolution)-1.  A value of 0
 476:Generated_Source\PSoC5/RIGHT_PWM.c **** *           will result in the counter remaining at zero.
 477:Generated_Source\PSoC5/RIGHT_PWM.c **** *
 478:Generated_Source\PSoC5/RIGHT_PWM.c **** * Return:
 479:Generated_Source\PSoC5/RIGHT_PWM.c **** *  None
 480:Generated_Source\PSoC5/RIGHT_PWM.c **** *
 481:Generated_Source\PSoC5/RIGHT_PWM.c **** *******************************************************************************/
 482:Generated_Source\PSoC5/RIGHT_PWM.c **** void RIGHT_PWM_WritePeriod(uint8 period) 
 483:Generated_Source\PSoC5/RIGHT_PWM.c **** {
 100              		.loc 1 483 0
 101              		.cfi_startproc
 102              		@ args = 0, pretend = 0, frame = 0
 103              		@ frame_needed = 0, uses_anonymous_args = 0
 104              		@ link register save eliminated.
 105              	.LVL0:
 484:Generated_Source\PSoC5/RIGHT_PWM.c ****     #if(RIGHT_PWM_UsingFixedFunction)
 485:Generated_Source\PSoC5/RIGHT_PWM.c ****         CY_SET_REG16(RIGHT_PWM_PERIOD_LSB_PTR, (uint16)period);
 106              		.loc 1 485 0
 107 0000 014B     		ldr	r3, .L8
 108 0002 1880     		strh	r0, [r3]	@ movhi
 109 0004 7047     		bx	lr
 110              	.L9:
 111 0006 00BF     		.align	2
 112              	.L8:
 113 0008 104F0040 		.word	1073762064
 114              		.cfi_endproc
 115              	.LFE4:
 116              		.size	RIGHT_PWM_WritePeriod, .-RIGHT_PWM_WritePeriod
 117              		.section	.text.RIGHT_PWM_WriteCompare,"ax",%progbits
 118              		.align	2
 119              		.global	RIGHT_PWM_WriteCompare
 120              		.thumb
 121              		.thumb_func
 122              		.type	RIGHT_PWM_WriteCompare, %function
 123              	RIGHT_PWM_WriteCompare:
 124              	.LFB5:
 486:Generated_Source\PSoC5/RIGHT_PWM.c ****     #else
 487:Generated_Source\PSoC5/RIGHT_PWM.c ****         CY_SET_REG8(RIGHT_PWM_PERIOD_LSB_PTR, period);
 488:Generated_Source\PSoC5/RIGHT_PWM.c ****     #endif /* (RIGHT_PWM_UsingFixedFunction) */
 489:Generated_Source\PSoC5/RIGHT_PWM.c **** }
 490:Generated_Source\PSoC5/RIGHT_PWM.c **** 
 491:Generated_Source\PSoC5/RIGHT_PWM.c **** #if (RIGHT_PWM_UseOneCompareMode)
 492:Generated_Source\PSoC5/RIGHT_PWM.c **** 
 493:Generated_Source\PSoC5/RIGHT_PWM.c **** 
 494:Generated_Source\PSoC5/RIGHT_PWM.c ****     /*******************************************************************************
 495:Generated_Source\PSoC5/RIGHT_PWM.c ****     * Function Name: RIGHT_PWM_WriteCompare
 496:Generated_Source\PSoC5/RIGHT_PWM.c ****     ********************************************************************************
 497:Generated_Source\PSoC5/RIGHT_PWM.c ****     *
 498:Generated_Source\PSoC5/RIGHT_PWM.c ****     * Summary:
 499:Generated_Source\PSoC5/RIGHT_PWM.c ****     *  This funtion is used to change the compare1 value when the PWM is in Dither
 500:Generated_Source\PSoC5/RIGHT_PWM.c ****     *  mode. The compare output will reflect the new value on the next UDB clock.
 501:Generated_Source\PSoC5/RIGHT_PWM.c ****     *  The compare output will be driven high when the present counter value is
 502:Generated_Source\PSoC5/RIGHT_PWM.c ****     *  compared to the compare value based on the compare mode defined in
 503:Generated_Source\PSoC5/RIGHT_PWM.c ****     *  Dither Mode.
ARM GAS  C:\Users\SZABMT~1\AppData\Local\Temp\cciE5hms.s 			page 12


 504:Generated_Source\PSoC5/RIGHT_PWM.c ****     *
 505:Generated_Source\PSoC5/RIGHT_PWM.c ****     * Parameters:
 506:Generated_Source\PSoC5/RIGHT_PWM.c ****     *  compare:  New compare value.
 507:Generated_Source\PSoC5/RIGHT_PWM.c ****     *
 508:Generated_Source\PSoC5/RIGHT_PWM.c ****     * Return:
 509:Generated_Source\PSoC5/RIGHT_PWM.c ****     *  None
 510:Generated_Source\PSoC5/RIGHT_PWM.c ****     *
 511:Generated_Source\PSoC5/RIGHT_PWM.c ****     * Side Effects:
 512:Generated_Source\PSoC5/RIGHT_PWM.c ****     *  This function is only available if the PWM mode parameter is set to
 513:Generated_Source\PSoC5/RIGHT_PWM.c ****     *  Dither Mode, Center Aligned Mode or One Output Mode
 514:Generated_Source\PSoC5/RIGHT_PWM.c ****     *
 515:Generated_Source\PSoC5/RIGHT_PWM.c ****     *******************************************************************************/
 516:Generated_Source\PSoC5/RIGHT_PWM.c ****     void RIGHT_PWM_WriteCompare(uint8 compare) \
 517:Generated_Source\PSoC5/RIGHT_PWM.c ****                                        
 518:Generated_Source\PSoC5/RIGHT_PWM.c ****     {
 125              		.loc 1 518 0
 126              		.cfi_startproc
 127              		@ args = 0, pretend = 0, frame = 0
 128              		@ frame_needed = 0, uses_anonymous_args = 0
 129              		@ link register save eliminated.
 130              	.LVL1:
 519:Generated_Source\PSoC5/RIGHT_PWM.c ****         #if(RIGHT_PWM_UsingFixedFunction)
 520:Generated_Source\PSoC5/RIGHT_PWM.c ****             CY_SET_REG16(RIGHT_PWM_COMPARE1_LSB_PTR, (uint16)compare);
 131              		.loc 1 520 0
 132 0000 014B     		ldr	r3, .L11
 133 0002 1880     		strh	r0, [r3]	@ movhi
 134 0004 7047     		bx	lr
 135              	.L12:
 136 0006 00BF     		.align	2
 137              	.L11:
 138 0008 124F0040 		.word	1073762066
 139              		.cfi_endproc
 140              	.LFE5:
 141              		.size	RIGHT_PWM_WriteCompare, .-RIGHT_PWM_WriteCompare
 142              		.section	.text.RIGHT_PWM_SetInterruptMode,"ax",%progbits
 143              		.align	2
 144              		.global	RIGHT_PWM_SetInterruptMode
 145              		.thumb
 146              		.thumb_func
 147              		.type	RIGHT_PWM_SetInterruptMode, %function
 148              	RIGHT_PWM_SetInterruptMode:
 149              	.LFB6:
 521:Generated_Source\PSoC5/RIGHT_PWM.c ****         #else
 522:Generated_Source\PSoC5/RIGHT_PWM.c ****             CY_SET_REG8(RIGHT_PWM_COMPARE1_LSB_PTR, compare);
 523:Generated_Source\PSoC5/RIGHT_PWM.c ****         #endif /* (RIGHT_PWM_UsingFixedFunction) */
 524:Generated_Source\PSoC5/RIGHT_PWM.c **** 
 525:Generated_Source\PSoC5/RIGHT_PWM.c ****         #if (RIGHT_PWM_PWMMode == RIGHT_PWM__B_PWM__DITHER)
 526:Generated_Source\PSoC5/RIGHT_PWM.c ****             #if(RIGHT_PWM_UsingFixedFunction)
 527:Generated_Source\PSoC5/RIGHT_PWM.c ****                 CY_SET_REG16(RIGHT_PWM_COMPARE2_LSB_PTR, (uint16)(compare + 1u));
 528:Generated_Source\PSoC5/RIGHT_PWM.c ****             #else
 529:Generated_Source\PSoC5/RIGHT_PWM.c ****                 CY_SET_REG8(RIGHT_PWM_COMPARE2_LSB_PTR, (compare + 1u));
 530:Generated_Source\PSoC5/RIGHT_PWM.c ****             #endif /* (RIGHT_PWM_UsingFixedFunction) */
 531:Generated_Source\PSoC5/RIGHT_PWM.c ****         #endif /* (RIGHT_PWM_PWMMode == RIGHT_PWM__B_PWM__DITHER) */
 532:Generated_Source\PSoC5/RIGHT_PWM.c ****     }
 533:Generated_Source\PSoC5/RIGHT_PWM.c **** 
 534:Generated_Source\PSoC5/RIGHT_PWM.c **** 
 535:Generated_Source\PSoC5/RIGHT_PWM.c **** #else
ARM GAS  C:\Users\SZABMT~1\AppData\Local\Temp\cciE5hms.s 			page 13


 536:Generated_Source\PSoC5/RIGHT_PWM.c **** 
 537:Generated_Source\PSoC5/RIGHT_PWM.c **** 
 538:Generated_Source\PSoC5/RIGHT_PWM.c ****     /*******************************************************************************
 539:Generated_Source\PSoC5/RIGHT_PWM.c ****     * Function Name: RIGHT_PWM_WriteCompare1
 540:Generated_Source\PSoC5/RIGHT_PWM.c ****     ********************************************************************************
 541:Generated_Source\PSoC5/RIGHT_PWM.c ****     *
 542:Generated_Source\PSoC5/RIGHT_PWM.c ****     * Summary:
 543:Generated_Source\PSoC5/RIGHT_PWM.c ****     *  This funtion is used to change the compare1 value.  The compare output will
 544:Generated_Source\PSoC5/RIGHT_PWM.c ****     *  reflect the new value on the next UDB clock.  The compare output will be
 545:Generated_Source\PSoC5/RIGHT_PWM.c ****     *  driven high when the present counter value is less than or less than or
 546:Generated_Source\PSoC5/RIGHT_PWM.c ****     *  equal to the compare register, depending on the mode.
 547:Generated_Source\PSoC5/RIGHT_PWM.c ****     *
 548:Generated_Source\PSoC5/RIGHT_PWM.c ****     * Parameters:
 549:Generated_Source\PSoC5/RIGHT_PWM.c ****     *  compare:  New compare value.
 550:Generated_Source\PSoC5/RIGHT_PWM.c ****     *
 551:Generated_Source\PSoC5/RIGHT_PWM.c ****     * Return:
 552:Generated_Source\PSoC5/RIGHT_PWM.c ****     *  None
 553:Generated_Source\PSoC5/RIGHT_PWM.c ****     *
 554:Generated_Source\PSoC5/RIGHT_PWM.c ****     *******************************************************************************/
 555:Generated_Source\PSoC5/RIGHT_PWM.c ****     void RIGHT_PWM_WriteCompare1(uint8 compare) \
 556:Generated_Source\PSoC5/RIGHT_PWM.c ****                                         
 557:Generated_Source\PSoC5/RIGHT_PWM.c ****     {
 558:Generated_Source\PSoC5/RIGHT_PWM.c ****         #if(RIGHT_PWM_UsingFixedFunction)
 559:Generated_Source\PSoC5/RIGHT_PWM.c ****             CY_SET_REG16(RIGHT_PWM_COMPARE1_LSB_PTR, (uint16)compare);
 560:Generated_Source\PSoC5/RIGHT_PWM.c ****         #else
 561:Generated_Source\PSoC5/RIGHT_PWM.c ****             CY_SET_REG8(RIGHT_PWM_COMPARE1_LSB_PTR, compare);
 562:Generated_Source\PSoC5/RIGHT_PWM.c ****         #endif /* (RIGHT_PWM_UsingFixedFunction) */
 563:Generated_Source\PSoC5/RIGHT_PWM.c ****     }
 564:Generated_Source\PSoC5/RIGHT_PWM.c **** 
 565:Generated_Source\PSoC5/RIGHT_PWM.c **** 
 566:Generated_Source\PSoC5/RIGHT_PWM.c ****     /*******************************************************************************
 567:Generated_Source\PSoC5/RIGHT_PWM.c ****     * Function Name: RIGHT_PWM_WriteCompare2
 568:Generated_Source\PSoC5/RIGHT_PWM.c ****     ********************************************************************************
 569:Generated_Source\PSoC5/RIGHT_PWM.c ****     *
 570:Generated_Source\PSoC5/RIGHT_PWM.c ****     * Summary:
 571:Generated_Source\PSoC5/RIGHT_PWM.c ****     *  This funtion is used to change the compare value, for compare1 output.
 572:Generated_Source\PSoC5/RIGHT_PWM.c ****     *  The compare output will reflect the new value on the next UDB clock.
 573:Generated_Source\PSoC5/RIGHT_PWM.c ****     *  The compare output will be driven high when the present counter value is
 574:Generated_Source\PSoC5/RIGHT_PWM.c ****     *  less than or less than or equal to the compare register, depending on the
 575:Generated_Source\PSoC5/RIGHT_PWM.c ****     *  mode.
 576:Generated_Source\PSoC5/RIGHT_PWM.c ****     *
 577:Generated_Source\PSoC5/RIGHT_PWM.c ****     * Parameters:
 578:Generated_Source\PSoC5/RIGHT_PWM.c ****     *  compare:  New compare value.
 579:Generated_Source\PSoC5/RIGHT_PWM.c ****     *
 580:Generated_Source\PSoC5/RIGHT_PWM.c ****     * Return:
 581:Generated_Source\PSoC5/RIGHT_PWM.c ****     *  None
 582:Generated_Source\PSoC5/RIGHT_PWM.c ****     *
 583:Generated_Source\PSoC5/RIGHT_PWM.c ****     *******************************************************************************/
 584:Generated_Source\PSoC5/RIGHT_PWM.c ****     void RIGHT_PWM_WriteCompare2(uint8 compare) \
 585:Generated_Source\PSoC5/RIGHT_PWM.c ****                                         
 586:Generated_Source\PSoC5/RIGHT_PWM.c ****     {
 587:Generated_Source\PSoC5/RIGHT_PWM.c ****         #if(RIGHT_PWM_UsingFixedFunction)
 588:Generated_Source\PSoC5/RIGHT_PWM.c ****             CY_SET_REG16(RIGHT_PWM_COMPARE2_LSB_PTR, compare);
 589:Generated_Source\PSoC5/RIGHT_PWM.c ****         #else
 590:Generated_Source\PSoC5/RIGHT_PWM.c ****             CY_SET_REG8(RIGHT_PWM_COMPARE2_LSB_PTR, compare);
 591:Generated_Source\PSoC5/RIGHT_PWM.c ****         #endif /* (RIGHT_PWM_UsingFixedFunction) */
 592:Generated_Source\PSoC5/RIGHT_PWM.c ****     }
ARM GAS  C:\Users\SZABMT~1\AppData\Local\Temp\cciE5hms.s 			page 14


 593:Generated_Source\PSoC5/RIGHT_PWM.c **** #endif /* UseOneCompareMode */
 594:Generated_Source\PSoC5/RIGHT_PWM.c **** 
 595:Generated_Source\PSoC5/RIGHT_PWM.c **** #if (RIGHT_PWM_DeadBandUsed)
 596:Generated_Source\PSoC5/RIGHT_PWM.c **** 
 597:Generated_Source\PSoC5/RIGHT_PWM.c **** 
 598:Generated_Source\PSoC5/RIGHT_PWM.c ****     /*******************************************************************************
 599:Generated_Source\PSoC5/RIGHT_PWM.c ****     * Function Name: RIGHT_PWM_WriteDeadTime
 600:Generated_Source\PSoC5/RIGHT_PWM.c ****     ********************************************************************************
 601:Generated_Source\PSoC5/RIGHT_PWM.c ****     *
 602:Generated_Source\PSoC5/RIGHT_PWM.c ****     * Summary:
 603:Generated_Source\PSoC5/RIGHT_PWM.c ****     *  This function writes the dead-band counts to the corresponding register
 604:Generated_Source\PSoC5/RIGHT_PWM.c ****     *
 605:Generated_Source\PSoC5/RIGHT_PWM.c ****     * Parameters:
 606:Generated_Source\PSoC5/RIGHT_PWM.c ****     *  deadtime:  Number of counts for dead time
 607:Generated_Source\PSoC5/RIGHT_PWM.c ****     *
 608:Generated_Source\PSoC5/RIGHT_PWM.c ****     * Return:
 609:Generated_Source\PSoC5/RIGHT_PWM.c ****     *  None
 610:Generated_Source\PSoC5/RIGHT_PWM.c ****     *
 611:Generated_Source\PSoC5/RIGHT_PWM.c ****     *******************************************************************************/
 612:Generated_Source\PSoC5/RIGHT_PWM.c ****     void RIGHT_PWM_WriteDeadTime(uint8 deadtime) 
 613:Generated_Source\PSoC5/RIGHT_PWM.c ****     {
 614:Generated_Source\PSoC5/RIGHT_PWM.c ****         /* If using the Dead Band 1-255 mode then just write the register */
 615:Generated_Source\PSoC5/RIGHT_PWM.c ****         #if(!RIGHT_PWM_DeadBand2_4)
 616:Generated_Source\PSoC5/RIGHT_PWM.c ****             CY_SET_REG8(RIGHT_PWM_DEADBAND_COUNT_PTR, deadtime);
 617:Generated_Source\PSoC5/RIGHT_PWM.c ****         #else
 618:Generated_Source\PSoC5/RIGHT_PWM.c ****             /* Otherwise the data has to be masked and offset */
 619:Generated_Source\PSoC5/RIGHT_PWM.c ****             /* Clear existing data */
 620:Generated_Source\PSoC5/RIGHT_PWM.c ****             RIGHT_PWM_DEADBAND_COUNT &= ((uint8)(~RIGHT_PWM_DEADBAND_COUNT_MASK));
 621:Generated_Source\PSoC5/RIGHT_PWM.c **** 
 622:Generated_Source\PSoC5/RIGHT_PWM.c ****             /* Set new dead time */
 623:Generated_Source\PSoC5/RIGHT_PWM.c ****             #if(RIGHT_PWM_DEADBAND_COUNT_SHIFT)
 624:Generated_Source\PSoC5/RIGHT_PWM.c ****                 RIGHT_PWM_DEADBAND_COUNT |= ((uint8)((uint8)deadtime << RIGHT_PWM_DEADBAND_COUNT_SH
 625:Generated_Source\PSoC5/RIGHT_PWM.c ****                                                     RIGHT_PWM_DEADBAND_COUNT_MASK;
 626:Generated_Source\PSoC5/RIGHT_PWM.c ****             #else
 627:Generated_Source\PSoC5/RIGHT_PWM.c ****                 RIGHT_PWM_DEADBAND_COUNT |= deadtime & RIGHT_PWM_DEADBAND_COUNT_MASK;
 628:Generated_Source\PSoC5/RIGHT_PWM.c ****             #endif /* (RIGHT_PWM_DEADBAND_COUNT_SHIFT) */
 629:Generated_Source\PSoC5/RIGHT_PWM.c **** 
 630:Generated_Source\PSoC5/RIGHT_PWM.c ****         #endif /* (!RIGHT_PWM_DeadBand2_4) */
 631:Generated_Source\PSoC5/RIGHT_PWM.c ****     }
 632:Generated_Source\PSoC5/RIGHT_PWM.c **** 
 633:Generated_Source\PSoC5/RIGHT_PWM.c **** 
 634:Generated_Source\PSoC5/RIGHT_PWM.c ****     /*******************************************************************************
 635:Generated_Source\PSoC5/RIGHT_PWM.c ****     * Function Name: RIGHT_PWM_ReadDeadTime
 636:Generated_Source\PSoC5/RIGHT_PWM.c ****     ********************************************************************************
 637:Generated_Source\PSoC5/RIGHT_PWM.c ****     *
 638:Generated_Source\PSoC5/RIGHT_PWM.c ****     * Summary:
 639:Generated_Source\PSoC5/RIGHT_PWM.c ****     *  This function reads the dead-band counts from the corresponding register
 640:Generated_Source\PSoC5/RIGHT_PWM.c ****     *
 641:Generated_Source\PSoC5/RIGHT_PWM.c ****     * Parameters:
 642:Generated_Source\PSoC5/RIGHT_PWM.c ****     *  None
 643:Generated_Source\PSoC5/RIGHT_PWM.c ****     *
 644:Generated_Source\PSoC5/RIGHT_PWM.c ****     * Return:
 645:Generated_Source\PSoC5/RIGHT_PWM.c ****     *  Dead Band Counts
 646:Generated_Source\PSoC5/RIGHT_PWM.c ****     *
 647:Generated_Source\PSoC5/RIGHT_PWM.c ****     *******************************************************************************/
 648:Generated_Source\PSoC5/RIGHT_PWM.c ****     uint8 RIGHT_PWM_ReadDeadTime(void) 
 649:Generated_Source\PSoC5/RIGHT_PWM.c ****     {
ARM GAS  C:\Users\SZABMT~1\AppData\Local\Temp\cciE5hms.s 			page 15


 650:Generated_Source\PSoC5/RIGHT_PWM.c ****         /* If using the Dead Band 1-255 mode then just read the register */
 651:Generated_Source\PSoC5/RIGHT_PWM.c ****         #if(!RIGHT_PWM_DeadBand2_4)
 652:Generated_Source\PSoC5/RIGHT_PWM.c ****             return (CY_GET_REG8(RIGHT_PWM_DEADBAND_COUNT_PTR));
 653:Generated_Source\PSoC5/RIGHT_PWM.c ****         #else
 654:Generated_Source\PSoC5/RIGHT_PWM.c **** 
 655:Generated_Source\PSoC5/RIGHT_PWM.c ****             /* Otherwise the data has to be masked and offset */
 656:Generated_Source\PSoC5/RIGHT_PWM.c ****             #if(RIGHT_PWM_DEADBAND_COUNT_SHIFT)
 657:Generated_Source\PSoC5/RIGHT_PWM.c ****                 return ((uint8)(((uint8)(RIGHT_PWM_DEADBAND_COUNT & RIGHT_PWM_DEADBAND_COUNT_MASK))
 658:Generated_Source\PSoC5/RIGHT_PWM.c ****                                                                            RIGHT_PWM_DEADBAND_COUNT
 659:Generated_Source\PSoC5/RIGHT_PWM.c ****             #else
 660:Generated_Source\PSoC5/RIGHT_PWM.c ****                 return (RIGHT_PWM_DEADBAND_COUNT & RIGHT_PWM_DEADBAND_COUNT_MASK);
 661:Generated_Source\PSoC5/RIGHT_PWM.c ****             #endif /* (RIGHT_PWM_DEADBAND_COUNT_SHIFT) */
 662:Generated_Source\PSoC5/RIGHT_PWM.c ****         #endif /* (!RIGHT_PWM_DeadBand2_4) */
 663:Generated_Source\PSoC5/RIGHT_PWM.c ****     }
 664:Generated_Source\PSoC5/RIGHT_PWM.c **** #endif /* DeadBandUsed */
 665:Generated_Source\PSoC5/RIGHT_PWM.c **** 
 666:Generated_Source\PSoC5/RIGHT_PWM.c **** #if (RIGHT_PWM_UseStatus || RIGHT_PWM_UsingFixedFunction)
 667:Generated_Source\PSoC5/RIGHT_PWM.c **** 
 668:Generated_Source\PSoC5/RIGHT_PWM.c **** 
 669:Generated_Source\PSoC5/RIGHT_PWM.c ****     /*******************************************************************************
 670:Generated_Source\PSoC5/RIGHT_PWM.c ****     * Function Name: RIGHT_PWM_SetInterruptMode
 671:Generated_Source\PSoC5/RIGHT_PWM.c ****     ********************************************************************************
 672:Generated_Source\PSoC5/RIGHT_PWM.c ****     *
 673:Generated_Source\PSoC5/RIGHT_PWM.c ****     * Summary:
 674:Generated_Source\PSoC5/RIGHT_PWM.c ****     *  This function configures the interrupts mask control of theinterrupt
 675:Generated_Source\PSoC5/RIGHT_PWM.c ****     *  source status register.
 676:Generated_Source\PSoC5/RIGHT_PWM.c ****     *
 677:Generated_Source\PSoC5/RIGHT_PWM.c ****     * Parameters:
 678:Generated_Source\PSoC5/RIGHT_PWM.c ****     *  uint8 interruptMode: Bit field containing the interrupt sources enabled
 679:Generated_Source\PSoC5/RIGHT_PWM.c ****     *
 680:Generated_Source\PSoC5/RIGHT_PWM.c ****     * Return:
 681:Generated_Source\PSoC5/RIGHT_PWM.c ****     *  None
 682:Generated_Source\PSoC5/RIGHT_PWM.c ****     *
 683:Generated_Source\PSoC5/RIGHT_PWM.c ****     *******************************************************************************/
 684:Generated_Source\PSoC5/RIGHT_PWM.c ****     void RIGHT_PWM_SetInterruptMode(uint8 interruptMode) 
 685:Generated_Source\PSoC5/RIGHT_PWM.c ****     {
 150              		.loc 1 685 0
 151              		.cfi_startproc
 152              		@ args = 0, pretend = 0, frame = 0
 153              		@ frame_needed = 0, uses_anonymous_args = 0
 154              		@ link register save eliminated.
 155              	.LVL2:
 686:Generated_Source\PSoC5/RIGHT_PWM.c ****         CY_SET_REG8(RIGHT_PWM_STATUS_MASK_PTR, interruptMode);
 156              		.loc 1 686 0
 157 0000 014B     		ldr	r3, .L14
 158 0002 1870     		strb	r0, [r3]
 159 0004 7047     		bx	lr
 160              	.L15:
 161 0006 00BF     		.align	2
 162              	.L14:
 163 0008 0F4F0040 		.word	1073762063
 164              		.cfi_endproc
 165              	.LFE6:
 166              		.size	RIGHT_PWM_SetInterruptMode, .-RIGHT_PWM_SetInterruptMode
 167              		.section	.text.RIGHT_PWM_Init,"ax",%progbits
 168              		.align	2
 169              		.global	RIGHT_PWM_Init
ARM GAS  C:\Users\SZABMT~1\AppData\Local\Temp\cciE5hms.s 			page 16


 170              		.thumb
 171              		.thumb_func
 172              		.type	RIGHT_PWM_Init, %function
 173              	RIGHT_PWM_Init:
 174              	.LFB1:
  85:Generated_Source\PSoC5/RIGHT_PWM.c ****     #if (RIGHT_PWM_UsingFixedFunction || RIGHT_PWM_UseControl)
 175              		.loc 1 85 0
 176              		.cfi_startproc
 177              		@ args = 0, pretend = 0, frame = 0
 178              		@ frame_needed = 0, uses_anonymous_args = 0
 179 0000 08B5     		push	{r3, lr}
 180              		.cfi_def_cfa_offset 8
 181              		.cfi_offset 3, -8
 182              		.cfi_offset 14, -4
  99:Generated_Source\PSoC5/RIGHT_PWM.c ****         #if (RIGHT_PWM_DeadBand2_4)
 183              		.loc 1 99 0
 184 0002 194A     		ldr	r2, .L18
 185 0004 1378     		ldrb	r3, [r2]	@ zero_extendqisi2
 186 0006 43F00203 		orr	r3, r3, #2
 187 000a 1370     		strb	r3, [r2]
 104:Generated_Source\PSoC5/RIGHT_PWM.c ****         RIGHT_PWM_CONTROL3 = ctrl | RIGHT_PWM_DEFAULT_COMPARE1_MODE;
 188              		.loc 1 104 0
 189 000c 0232     		adds	r2, r2, #2
 190 000e 1378     		ldrb	r3, [r2]	@ zero_extendqisi2
 191 0010 03F08F03 		and	r3, r3, #143
 192              	.LVL3:
 105:Generated_Source\PSoC5/RIGHT_PWM.c **** 
 193              		.loc 1 105 0
 194 0014 43F01003 		orr	r3, r3, #16
 195              	.LVL4:
 196 0018 1370     		strb	r3, [r2]
 108:Generated_Source\PSoC5/RIGHT_PWM.c ****         RIGHT_PWM_RT1 |= RIGHT_PWM_SYNC;
 197              		.loc 1 108 0
 198 001a 144B     		ldr	r3, .L18+4
 199 001c 1A78     		ldrb	r2, [r3]	@ zero_extendqisi2
 200 001e 02F0CF02 		and	r2, r2, #207
 201 0022 1A70     		strb	r2, [r3]
 109:Generated_Source\PSoC5/RIGHT_PWM.c **** 
 202              		.loc 1 109 0
 203 0024 1A78     		ldrb	r2, [r3]	@ zero_extendqisi2
 204 0026 42F03002 		orr	r2, r2, #48
 205 002a 1A70     		strb	r2, [r3]
 112:Generated_Source\PSoC5/RIGHT_PWM.c ****         RIGHT_PWM_RT1 |= RIGHT_PWM_SYNCDSI_EN;
 206              		.loc 1 112 0
 207 002c 1A78     		ldrb	r2, [r3]	@ zero_extendqisi2
 208 002e 02F0F002 		and	r2, r2, #240
 209 0032 1A70     		strb	r2, [r3]
 113:Generated_Source\PSoC5/RIGHT_PWM.c **** 
 210              		.loc 1 113 0
 211 0034 1A78     		ldrb	r2, [r3]	@ zero_extendqisi2
 212 0036 42F00F02 		orr	r2, r2, #15
 213 003a 1A70     		strb	r2, [r3]
 136:Generated_Source\PSoC5/RIGHT_PWM.c **** 
 214              		.loc 1 136 0
 215 003c FF20     		movs	r0, #255
 216 003e FFF7FEFF 		bl	RIGHT_PWM_WritePeriod
 217              	.LVL5:
ARM GAS  C:\Users\SZABMT~1\AppData\Local\Temp\cciE5hms.s 			page 17


 139:Generated_Source\PSoC5/RIGHT_PWM.c ****         #else
 218              		.loc 1 139 0
 219 0042 7F20     		movs	r0, #127
 220 0044 FFF7FEFF 		bl	RIGHT_PWM_WriteCompare
 221              	.LVL6:
 154:Generated_Source\PSoC5/RIGHT_PWM.c ****     #endif /* (RIGHT_PWM_UseStatus || RIGHT_PWM_UsingFixedFunction) */
 222              		.loc 1 154 0
 223 0048 0020     		movs	r0, #0
 224 004a FFF7FEFF 		bl	RIGHT_PWM_SetInterruptMode
 225              	.LVL7:
 159:Generated_Source\PSoC5/RIGHT_PWM.c ****         /* Set the Interrupt source to come from the status register */
 226              		.loc 1 159 0
 227 004e 084A     		ldr	r2, .L18+8
 228 0050 1378     		ldrb	r3, [r2]	@ zero_extendqisi2
 229 0052 43F00203 		orr	r3, r3, #2
 230 0056 1370     		strb	r3, [r2]
 161:Generated_Source\PSoC5/RIGHT_PWM.c ****     #else
 231              		.loc 1 161 0
 232 0058 02F66A32 		addw	r2, r2, #2922
 233 005c 1378     		ldrb	r3, [r2]	@ zero_extendqisi2
 234 005e 43F00103 		orr	r3, r3, #1
 235 0062 1370     		strb	r3, [r2]
 236 0064 08BD     		pop	{r3, pc}
 237              	.L19:
 238 0066 00BF     		.align	2
 239              	.L18:
 240 0068 0C4F0040 		.word	1073762060
 241 006c 174F0040 		.word	1073762071
 242 0070 A3430040 		.word	1073759139
 243              		.cfi_endproc
 244              	.LFE1:
 245              		.size	RIGHT_PWM_Init, .-RIGHT_PWM_Init
 246              		.section	.text.RIGHT_PWM_Start,"ax",%progbits
 247              		.align	2
 248              		.global	RIGHT_PWM_Start
 249              		.thumb
 250              		.thumb_func
 251              		.type	RIGHT_PWM_Start, %function
 252              	RIGHT_PWM_Start:
 253              	.LFB0:
  56:Generated_Source\PSoC5/RIGHT_PWM.c ****     /* If not Initialized then initialize all required hardware and software */
 254              		.loc 1 56 0
 255              		.cfi_startproc
 256              		@ args = 0, pretend = 0, frame = 0
 257              		@ frame_needed = 0, uses_anonymous_args = 0
 258 0000 08B5     		push	{r3, lr}
 259              		.cfi_def_cfa_offset 8
 260              		.cfi_offset 3, -8
 261              		.cfi_offset 14, -4
  58:Generated_Source\PSoC5/RIGHT_PWM.c ****     {
 262              		.loc 1 58 0
 263 0002 054B     		ldr	r3, .L23
 264 0004 1B78     		ldrb	r3, [r3]	@ zero_extendqisi2
 265 0006 23B9     		cbnz	r3, .L21
  60:Generated_Source\PSoC5/RIGHT_PWM.c ****         RIGHT_PWM_initVar = 1u;
 266              		.loc 1 60 0
 267 0008 FFF7FEFF 		bl	RIGHT_PWM_Init
ARM GAS  C:\Users\SZABMT~1\AppData\Local\Temp\cciE5hms.s 			page 18


 268              	.LVL8:
  61:Generated_Source\PSoC5/RIGHT_PWM.c ****     }
 269              		.loc 1 61 0
 270 000c 0122     		movs	r2, #1
 271 000e 024B     		ldr	r3, .L23
 272 0010 1A70     		strb	r2, [r3]
 273              	.L21:
  63:Generated_Source\PSoC5/RIGHT_PWM.c **** 
 274              		.loc 1 63 0
 275 0012 FFF7FEFF 		bl	RIGHT_PWM_Enable
 276              	.LVL9:
 277 0016 08BD     		pop	{r3, pc}
 278              	.L24:
 279              		.align	2
 280              	.L23:
 281 0018 00000000 		.word	.LANCHOR0
 282              		.cfi_endproc
 283              	.LFE0:
 284              		.size	RIGHT_PWM_Start, .-RIGHT_PWM_Start
 285              		.section	.text.RIGHT_PWM_ReadStatusRegister,"ax",%progbits
 286              		.align	2
 287              		.global	RIGHT_PWM_ReadStatusRegister
 288              		.thumb
 289              		.thumb_func
 290              		.type	RIGHT_PWM_ReadStatusRegister, %function
 291              	RIGHT_PWM_ReadStatusRegister:
 292              	.LFB7:
 687:Generated_Source\PSoC5/RIGHT_PWM.c ****     }
 688:Generated_Source\PSoC5/RIGHT_PWM.c **** 
 689:Generated_Source\PSoC5/RIGHT_PWM.c **** 
 690:Generated_Source\PSoC5/RIGHT_PWM.c ****     /*******************************************************************************
 691:Generated_Source\PSoC5/RIGHT_PWM.c ****     * Function Name: RIGHT_PWM_ReadStatusRegister
 692:Generated_Source\PSoC5/RIGHT_PWM.c ****     ********************************************************************************
 693:Generated_Source\PSoC5/RIGHT_PWM.c ****     *
 694:Generated_Source\PSoC5/RIGHT_PWM.c ****     * Summary:
 695:Generated_Source\PSoC5/RIGHT_PWM.c ****     *  This function returns the current state of the status register.
 696:Generated_Source\PSoC5/RIGHT_PWM.c ****     *
 697:Generated_Source\PSoC5/RIGHT_PWM.c ****     * Parameters:
 698:Generated_Source\PSoC5/RIGHT_PWM.c ****     *  None
 699:Generated_Source\PSoC5/RIGHT_PWM.c ****     *
 700:Generated_Source\PSoC5/RIGHT_PWM.c ****     * Return:
 701:Generated_Source\PSoC5/RIGHT_PWM.c ****     *  uint8 : Current status register value. The status register bits are:
 702:Generated_Source\PSoC5/RIGHT_PWM.c ****     *  [7:6] : Unused(0)
 703:Generated_Source\PSoC5/RIGHT_PWM.c ****     *  [5]   : Kill event output
 704:Generated_Source\PSoC5/RIGHT_PWM.c ****     *  [4]   : FIFO not empty
 705:Generated_Source\PSoC5/RIGHT_PWM.c ****     *  [3]   : FIFO full
 706:Generated_Source\PSoC5/RIGHT_PWM.c ****     *  [2]   : Terminal count
 707:Generated_Source\PSoC5/RIGHT_PWM.c ****     *  [1]   : Compare output 2
 708:Generated_Source\PSoC5/RIGHT_PWM.c ****     *  [0]   : Compare output 1
 709:Generated_Source\PSoC5/RIGHT_PWM.c ****     *
 710:Generated_Source\PSoC5/RIGHT_PWM.c ****     *******************************************************************************/
 711:Generated_Source\PSoC5/RIGHT_PWM.c ****     uint8 RIGHT_PWM_ReadStatusRegister(void) 
 712:Generated_Source\PSoC5/RIGHT_PWM.c ****     {
 293              		.loc 1 712 0
 294              		.cfi_startproc
 295              		@ args = 0, pretend = 0, frame = 0
 296              		@ frame_needed = 0, uses_anonymous_args = 0
ARM GAS  C:\Users\SZABMT~1\AppData\Local\Temp\cciE5hms.s 			page 19


 297              		@ link register save eliminated.
 713:Generated_Source\PSoC5/RIGHT_PWM.c ****         return (CY_GET_REG8(RIGHT_PWM_STATUS_PTR));
 298              		.loc 1 713 0
 299 0000 014B     		ldr	r3, .L26
 300 0002 1878     		ldrb	r0, [r3]	@ zero_extendqisi2
 714:Generated_Source\PSoC5/RIGHT_PWM.c ****     }
 301              		.loc 1 714 0
 302 0004 7047     		bx	lr
 303              	.L27:
 304 0006 00BF     		.align	2
 305              	.L26:
 306 0008 0F4F0040 		.word	1073762063
 307              		.cfi_endproc
 308              	.LFE7:
 309              		.size	RIGHT_PWM_ReadStatusRegister, .-RIGHT_PWM_ReadStatusRegister
 310              		.section	.text.RIGHT_PWM_ReadControlRegister,"ax",%progbits
 311              		.align	2
 312              		.global	RIGHT_PWM_ReadControlRegister
 313              		.thumb
 314              		.thumb_func
 315              		.type	RIGHT_PWM_ReadControlRegister, %function
 316              	RIGHT_PWM_ReadControlRegister:
 317              	.LFB8:
 715:Generated_Source\PSoC5/RIGHT_PWM.c **** 
 716:Generated_Source\PSoC5/RIGHT_PWM.c **** #endif /* (RIGHT_PWM_UseStatus || RIGHT_PWM_UsingFixedFunction) */
 717:Generated_Source\PSoC5/RIGHT_PWM.c **** 
 718:Generated_Source\PSoC5/RIGHT_PWM.c **** 
 719:Generated_Source\PSoC5/RIGHT_PWM.c **** #if (RIGHT_PWM_UseControl)
 720:Generated_Source\PSoC5/RIGHT_PWM.c **** 
 721:Generated_Source\PSoC5/RIGHT_PWM.c **** 
 722:Generated_Source\PSoC5/RIGHT_PWM.c ****     /*******************************************************************************
 723:Generated_Source\PSoC5/RIGHT_PWM.c ****     * Function Name: RIGHT_PWM_ReadControlRegister
 724:Generated_Source\PSoC5/RIGHT_PWM.c ****     ********************************************************************************
 725:Generated_Source\PSoC5/RIGHT_PWM.c ****     *
 726:Generated_Source\PSoC5/RIGHT_PWM.c ****     * Summary:
 727:Generated_Source\PSoC5/RIGHT_PWM.c ****     *  Returns the current state of the control register. This API is available
 728:Generated_Source\PSoC5/RIGHT_PWM.c ****     *  only if the control register is not removed.
 729:Generated_Source\PSoC5/RIGHT_PWM.c ****     *
 730:Generated_Source\PSoC5/RIGHT_PWM.c ****     * Parameters:
 731:Generated_Source\PSoC5/RIGHT_PWM.c ****     *  None
 732:Generated_Source\PSoC5/RIGHT_PWM.c ****     *
 733:Generated_Source\PSoC5/RIGHT_PWM.c ****     * Return:
 734:Generated_Source\PSoC5/RIGHT_PWM.c ****     *  uint8 : Current control register value
 735:Generated_Source\PSoC5/RIGHT_PWM.c ****     *
 736:Generated_Source\PSoC5/RIGHT_PWM.c ****     *******************************************************************************/
 737:Generated_Source\PSoC5/RIGHT_PWM.c ****     uint8 RIGHT_PWM_ReadControlRegister(void) 
 738:Generated_Source\PSoC5/RIGHT_PWM.c ****     {
 318              		.loc 1 738 0
 319              		.cfi_startproc
 320              		@ args = 0, pretend = 0, frame = 0
 321              		@ frame_needed = 0, uses_anonymous_args = 0
 322              		@ link register save eliminated.
 739:Generated_Source\PSoC5/RIGHT_PWM.c ****         uint8 result;
 740:Generated_Source\PSoC5/RIGHT_PWM.c **** 
 741:Generated_Source\PSoC5/RIGHT_PWM.c ****         result = CY_GET_REG8(RIGHT_PWM_CONTROL_PTR);
 323              		.loc 1 741 0
 324 0000 014B     		ldr	r3, .L29
ARM GAS  C:\Users\SZABMT~1\AppData\Local\Temp\cciE5hms.s 			page 20


 325 0002 1878     		ldrb	r0, [r3]	@ zero_extendqisi2
 326              	.LVL10:
 742:Generated_Source\PSoC5/RIGHT_PWM.c ****         return (result);
 743:Generated_Source\PSoC5/RIGHT_PWM.c ****     }
 327              		.loc 1 743 0
 328 0004 7047     		bx	lr
 329              	.L30:
 330 0006 00BF     		.align	2
 331              	.L29:
 332 0008 0C4F0040 		.word	1073762060
 333              		.cfi_endproc
 334              	.LFE8:
 335              		.size	RIGHT_PWM_ReadControlRegister, .-RIGHT_PWM_ReadControlRegister
 336              		.section	.text.RIGHT_PWM_WriteControlRegister,"ax",%progbits
 337              		.align	2
 338              		.global	RIGHT_PWM_WriteControlRegister
 339              		.thumb
 340              		.thumb_func
 341              		.type	RIGHT_PWM_WriteControlRegister, %function
 342              	RIGHT_PWM_WriteControlRegister:
 343              	.LFB9:
 744:Generated_Source\PSoC5/RIGHT_PWM.c **** 
 745:Generated_Source\PSoC5/RIGHT_PWM.c **** 
 746:Generated_Source\PSoC5/RIGHT_PWM.c ****     /*******************************************************************************
 747:Generated_Source\PSoC5/RIGHT_PWM.c ****     * Function Name: RIGHT_PWM_WriteControlRegister
 748:Generated_Source\PSoC5/RIGHT_PWM.c ****     ********************************************************************************
 749:Generated_Source\PSoC5/RIGHT_PWM.c ****     *
 750:Generated_Source\PSoC5/RIGHT_PWM.c ****     * Summary:
 751:Generated_Source\PSoC5/RIGHT_PWM.c ****     *  Sets the bit field of the control register. This API is available only if
 752:Generated_Source\PSoC5/RIGHT_PWM.c ****     *  the control register is not removed.
 753:Generated_Source\PSoC5/RIGHT_PWM.c ****     *
 754:Generated_Source\PSoC5/RIGHT_PWM.c ****     * Parameters:
 755:Generated_Source\PSoC5/RIGHT_PWM.c ****     *  uint8 control: Control register bit field, The status register bits are:
 756:Generated_Source\PSoC5/RIGHT_PWM.c ****     *  [7]   : PWM Enable
 757:Generated_Source\PSoC5/RIGHT_PWM.c ****     *  [6]   : Reset
 758:Generated_Source\PSoC5/RIGHT_PWM.c ****     *  [5:3] : Compare Mode2
 759:Generated_Source\PSoC5/RIGHT_PWM.c ****     *  [2:0] : Compare Mode2
 760:Generated_Source\PSoC5/RIGHT_PWM.c ****     *
 761:Generated_Source\PSoC5/RIGHT_PWM.c ****     * Return:
 762:Generated_Source\PSoC5/RIGHT_PWM.c ****     *  None
 763:Generated_Source\PSoC5/RIGHT_PWM.c ****     *
 764:Generated_Source\PSoC5/RIGHT_PWM.c ****     *******************************************************************************/
 765:Generated_Source\PSoC5/RIGHT_PWM.c ****     void RIGHT_PWM_WriteControlRegister(uint8 control) 
 766:Generated_Source\PSoC5/RIGHT_PWM.c ****     {
 344              		.loc 1 766 0
 345              		.cfi_startproc
 346              		@ args = 0, pretend = 0, frame = 0
 347              		@ frame_needed = 0, uses_anonymous_args = 0
 348              		@ link register save eliminated.
 349              	.LVL11:
 767:Generated_Source\PSoC5/RIGHT_PWM.c ****         CY_SET_REG8(RIGHT_PWM_CONTROL_PTR, control);
 350              		.loc 1 767 0
 351 0000 014B     		ldr	r3, .L32
 352 0002 1870     		strb	r0, [r3]
 353 0004 7047     		bx	lr
 354              	.L33:
 355 0006 00BF     		.align	2
ARM GAS  C:\Users\SZABMT~1\AppData\Local\Temp\cciE5hms.s 			page 21


 356              	.L32:
 357 0008 0C4F0040 		.word	1073762060
 358              		.cfi_endproc
 359              	.LFE9:
 360              		.size	RIGHT_PWM_WriteControlRegister, .-RIGHT_PWM_WriteControlRegister
 361              		.section	.text.RIGHT_PWM_ReadCompare,"ax",%progbits
 362              		.align	2
 363              		.global	RIGHT_PWM_ReadCompare
 364              		.thumb
 365              		.thumb_func
 366              		.type	RIGHT_PWM_ReadCompare, %function
 367              	RIGHT_PWM_ReadCompare:
 368              	.LFB10:
 768:Generated_Source\PSoC5/RIGHT_PWM.c ****     }
 769:Generated_Source\PSoC5/RIGHT_PWM.c **** 
 770:Generated_Source\PSoC5/RIGHT_PWM.c **** #endif /* (RIGHT_PWM_UseControl) */
 771:Generated_Source\PSoC5/RIGHT_PWM.c **** 
 772:Generated_Source\PSoC5/RIGHT_PWM.c **** 
 773:Generated_Source\PSoC5/RIGHT_PWM.c **** #if (!RIGHT_PWM_UsingFixedFunction)
 774:Generated_Source\PSoC5/RIGHT_PWM.c **** 
 775:Generated_Source\PSoC5/RIGHT_PWM.c **** 
 776:Generated_Source\PSoC5/RIGHT_PWM.c ****     /*******************************************************************************
 777:Generated_Source\PSoC5/RIGHT_PWM.c ****     * Function Name: RIGHT_PWM_ReadCapture
 778:Generated_Source\PSoC5/RIGHT_PWM.c ****     ********************************************************************************
 779:Generated_Source\PSoC5/RIGHT_PWM.c ****     *
 780:Generated_Source\PSoC5/RIGHT_PWM.c ****     * Summary:
 781:Generated_Source\PSoC5/RIGHT_PWM.c ****     *  Reads the capture value from the capture FIFO.
 782:Generated_Source\PSoC5/RIGHT_PWM.c ****     *
 783:Generated_Source\PSoC5/RIGHT_PWM.c ****     * Parameters:
 784:Generated_Source\PSoC5/RIGHT_PWM.c ****     *  None
 785:Generated_Source\PSoC5/RIGHT_PWM.c ****     *
 786:Generated_Source\PSoC5/RIGHT_PWM.c ****     * Return:
 787:Generated_Source\PSoC5/RIGHT_PWM.c ****     *  uint8/uint16: The current capture value
 788:Generated_Source\PSoC5/RIGHT_PWM.c ****     *
 789:Generated_Source\PSoC5/RIGHT_PWM.c ****     *******************************************************************************/
 790:Generated_Source\PSoC5/RIGHT_PWM.c ****     uint8 RIGHT_PWM_ReadCapture(void) 
 791:Generated_Source\PSoC5/RIGHT_PWM.c ****     {
 792:Generated_Source\PSoC5/RIGHT_PWM.c ****         return (CY_GET_REG8(RIGHT_PWM_CAPTURE_LSB_PTR));
 793:Generated_Source\PSoC5/RIGHT_PWM.c ****     }
 794:Generated_Source\PSoC5/RIGHT_PWM.c **** 
 795:Generated_Source\PSoC5/RIGHT_PWM.c **** #endif /* (!RIGHT_PWM_UsingFixedFunction) */
 796:Generated_Source\PSoC5/RIGHT_PWM.c **** 
 797:Generated_Source\PSoC5/RIGHT_PWM.c **** 
 798:Generated_Source\PSoC5/RIGHT_PWM.c **** #if (RIGHT_PWM_UseOneCompareMode)
 799:Generated_Source\PSoC5/RIGHT_PWM.c **** 
 800:Generated_Source\PSoC5/RIGHT_PWM.c **** 
 801:Generated_Source\PSoC5/RIGHT_PWM.c ****     /*******************************************************************************
 802:Generated_Source\PSoC5/RIGHT_PWM.c ****     * Function Name: RIGHT_PWM_ReadCompare
 803:Generated_Source\PSoC5/RIGHT_PWM.c ****     ********************************************************************************
 804:Generated_Source\PSoC5/RIGHT_PWM.c ****     *
 805:Generated_Source\PSoC5/RIGHT_PWM.c ****     * Summary:
 806:Generated_Source\PSoC5/RIGHT_PWM.c ****     *  Reads the compare value for the compare output when the PWM Mode parameter is
 807:Generated_Source\PSoC5/RIGHT_PWM.c ****     *  set to Dither mode, Center Aligned mode, or One Output mode.
 808:Generated_Source\PSoC5/RIGHT_PWM.c ****     *
 809:Generated_Source\PSoC5/RIGHT_PWM.c ****     * Parameters:
 810:Generated_Source\PSoC5/RIGHT_PWM.c ****     *  None
 811:Generated_Source\PSoC5/RIGHT_PWM.c ****     *
ARM GAS  C:\Users\SZABMT~1\AppData\Local\Temp\cciE5hms.s 			page 22


 812:Generated_Source\PSoC5/RIGHT_PWM.c ****     * Return:
 813:Generated_Source\PSoC5/RIGHT_PWM.c ****     *  uint8/uint16: Current compare value
 814:Generated_Source\PSoC5/RIGHT_PWM.c ****     *
 815:Generated_Source\PSoC5/RIGHT_PWM.c ****     *******************************************************************************/
 816:Generated_Source\PSoC5/RIGHT_PWM.c ****     uint8 RIGHT_PWM_ReadCompare(void) 
 817:Generated_Source\PSoC5/RIGHT_PWM.c ****     {
 369              		.loc 1 817 0
 370              		.cfi_startproc
 371              		@ args = 0, pretend = 0, frame = 0
 372              		@ frame_needed = 0, uses_anonymous_args = 0
 373              		@ link register save eliminated.
 818:Generated_Source\PSoC5/RIGHT_PWM.c ****         #if(RIGHT_PWM_UsingFixedFunction)
 819:Generated_Source\PSoC5/RIGHT_PWM.c ****             return ((uint8)CY_GET_REG16(RIGHT_PWM_COMPARE1_LSB_PTR));
 374              		.loc 1 819 0
 375 0000 014B     		ldr	r3, .L35
 376 0002 1888     		ldrh	r0, [r3]
 820:Generated_Source\PSoC5/RIGHT_PWM.c ****         #else
 821:Generated_Source\PSoC5/RIGHT_PWM.c ****             return (CY_GET_REG8(RIGHT_PWM_COMPARE1_LSB_PTR));
 822:Generated_Source\PSoC5/RIGHT_PWM.c ****         #endif /* (RIGHT_PWM_UsingFixedFunction) */
 823:Generated_Source\PSoC5/RIGHT_PWM.c ****     }
 377              		.loc 1 823 0
 378 0004 C0B2     		uxtb	r0, r0
 379 0006 7047     		bx	lr
 380              	.L36:
 381              		.align	2
 382              	.L35:
 383 0008 124F0040 		.word	1073762066
 384              		.cfi_endproc
 385              	.LFE10:
 386              		.size	RIGHT_PWM_ReadCompare, .-RIGHT_PWM_ReadCompare
 387              		.section	.text.RIGHT_PWM_ReadPeriod,"ax",%progbits
 388              		.align	2
 389              		.global	RIGHT_PWM_ReadPeriod
 390              		.thumb
 391              		.thumb_func
 392              		.type	RIGHT_PWM_ReadPeriod, %function
 393              	RIGHT_PWM_ReadPeriod:
 394              	.LFB11:
 824:Generated_Source\PSoC5/RIGHT_PWM.c **** 
 825:Generated_Source\PSoC5/RIGHT_PWM.c **** #else
 826:Generated_Source\PSoC5/RIGHT_PWM.c **** 
 827:Generated_Source\PSoC5/RIGHT_PWM.c **** 
 828:Generated_Source\PSoC5/RIGHT_PWM.c ****     /*******************************************************************************
 829:Generated_Source\PSoC5/RIGHT_PWM.c ****     * Function Name: RIGHT_PWM_ReadCompare1
 830:Generated_Source\PSoC5/RIGHT_PWM.c ****     ********************************************************************************
 831:Generated_Source\PSoC5/RIGHT_PWM.c ****     *
 832:Generated_Source\PSoC5/RIGHT_PWM.c ****     * Summary:
 833:Generated_Source\PSoC5/RIGHT_PWM.c ****     *  Reads the compare value for the compare1 output.
 834:Generated_Source\PSoC5/RIGHT_PWM.c ****     *
 835:Generated_Source\PSoC5/RIGHT_PWM.c ****     * Parameters:
 836:Generated_Source\PSoC5/RIGHT_PWM.c ****     *  None
 837:Generated_Source\PSoC5/RIGHT_PWM.c ****     *
 838:Generated_Source\PSoC5/RIGHT_PWM.c ****     * Return:
 839:Generated_Source\PSoC5/RIGHT_PWM.c ****     *  uint8/uint16: Current compare value.
 840:Generated_Source\PSoC5/RIGHT_PWM.c ****     *
 841:Generated_Source\PSoC5/RIGHT_PWM.c ****     *******************************************************************************/
 842:Generated_Source\PSoC5/RIGHT_PWM.c ****     uint8 RIGHT_PWM_ReadCompare1(void) 
ARM GAS  C:\Users\SZABMT~1\AppData\Local\Temp\cciE5hms.s 			page 23


 843:Generated_Source\PSoC5/RIGHT_PWM.c ****     {
 844:Generated_Source\PSoC5/RIGHT_PWM.c ****         return (CY_GET_REG8(RIGHT_PWM_COMPARE1_LSB_PTR));
 845:Generated_Source\PSoC5/RIGHT_PWM.c ****     }
 846:Generated_Source\PSoC5/RIGHT_PWM.c **** 
 847:Generated_Source\PSoC5/RIGHT_PWM.c **** 
 848:Generated_Source\PSoC5/RIGHT_PWM.c ****     /*******************************************************************************
 849:Generated_Source\PSoC5/RIGHT_PWM.c ****     * Function Name: RIGHT_PWM_ReadCompare2
 850:Generated_Source\PSoC5/RIGHT_PWM.c ****     ********************************************************************************
 851:Generated_Source\PSoC5/RIGHT_PWM.c ****     *
 852:Generated_Source\PSoC5/RIGHT_PWM.c ****     * Summary:
 853:Generated_Source\PSoC5/RIGHT_PWM.c ****     *  Reads the compare value for the compare2 output.
 854:Generated_Source\PSoC5/RIGHT_PWM.c ****     *
 855:Generated_Source\PSoC5/RIGHT_PWM.c ****     * Parameters:
 856:Generated_Source\PSoC5/RIGHT_PWM.c ****     *  None
 857:Generated_Source\PSoC5/RIGHT_PWM.c ****     *
 858:Generated_Source\PSoC5/RIGHT_PWM.c ****     * Return:
 859:Generated_Source\PSoC5/RIGHT_PWM.c ****     *  uint8/uint16: Current compare value.
 860:Generated_Source\PSoC5/RIGHT_PWM.c ****     *
 861:Generated_Source\PSoC5/RIGHT_PWM.c ****     *******************************************************************************/
 862:Generated_Source\PSoC5/RIGHT_PWM.c ****     uint8 RIGHT_PWM_ReadCompare2(void) 
 863:Generated_Source\PSoC5/RIGHT_PWM.c ****     {
 864:Generated_Source\PSoC5/RIGHT_PWM.c ****         return (CY_GET_REG8(RIGHT_PWM_COMPARE2_LSB_PTR));
 865:Generated_Source\PSoC5/RIGHT_PWM.c ****     }
 866:Generated_Source\PSoC5/RIGHT_PWM.c **** 
 867:Generated_Source\PSoC5/RIGHT_PWM.c **** #endif /* (RIGHT_PWM_UseOneCompareMode) */
 868:Generated_Source\PSoC5/RIGHT_PWM.c **** 
 869:Generated_Source\PSoC5/RIGHT_PWM.c **** 
 870:Generated_Source\PSoC5/RIGHT_PWM.c **** /*******************************************************************************
 871:Generated_Source\PSoC5/RIGHT_PWM.c **** * Function Name: RIGHT_PWM_ReadPeriod
 872:Generated_Source\PSoC5/RIGHT_PWM.c **** ********************************************************************************
 873:Generated_Source\PSoC5/RIGHT_PWM.c **** *
 874:Generated_Source\PSoC5/RIGHT_PWM.c **** * Summary:
 875:Generated_Source\PSoC5/RIGHT_PWM.c **** *  Reads the period value used by the PWM hardware.
 876:Generated_Source\PSoC5/RIGHT_PWM.c **** *
 877:Generated_Source\PSoC5/RIGHT_PWM.c **** * Parameters:
 878:Generated_Source\PSoC5/RIGHT_PWM.c **** *  None
 879:Generated_Source\PSoC5/RIGHT_PWM.c **** *
 880:Generated_Source\PSoC5/RIGHT_PWM.c **** * Return:
 881:Generated_Source\PSoC5/RIGHT_PWM.c **** *  uint8/16: Period value
 882:Generated_Source\PSoC5/RIGHT_PWM.c **** *
 883:Generated_Source\PSoC5/RIGHT_PWM.c **** *******************************************************************************/
 884:Generated_Source\PSoC5/RIGHT_PWM.c **** uint8 RIGHT_PWM_ReadPeriod(void) 
 885:Generated_Source\PSoC5/RIGHT_PWM.c **** {
 395              		.loc 1 885 0
 396              		.cfi_startproc
 397              		@ args = 0, pretend = 0, frame = 0
 398              		@ frame_needed = 0, uses_anonymous_args = 0
 399              		@ link register save eliminated.
 886:Generated_Source\PSoC5/RIGHT_PWM.c ****     #if(RIGHT_PWM_UsingFixedFunction)
 887:Generated_Source\PSoC5/RIGHT_PWM.c ****         return ((uint8)CY_GET_REG16(RIGHT_PWM_PERIOD_LSB_PTR));
 400              		.loc 1 887 0
 401 0000 014B     		ldr	r3, .L38
 402 0002 1888     		ldrh	r0, [r3]
 888:Generated_Source\PSoC5/RIGHT_PWM.c ****     #else
 889:Generated_Source\PSoC5/RIGHT_PWM.c ****         return (CY_GET_REG8(RIGHT_PWM_PERIOD_LSB_PTR));
 890:Generated_Source\PSoC5/RIGHT_PWM.c ****     #endif /* (RIGHT_PWM_UsingFixedFunction) */
 891:Generated_Source\PSoC5/RIGHT_PWM.c **** }
ARM GAS  C:\Users\SZABMT~1\AppData\Local\Temp\cciE5hms.s 			page 24


 403              		.loc 1 891 0
 404 0004 C0B2     		uxtb	r0, r0
 405 0006 7047     		bx	lr
 406              	.L39:
 407              		.align	2
 408              	.L38:
 409 0008 104F0040 		.word	1073762064
 410              		.cfi_endproc
 411              	.LFE11:
 412              		.size	RIGHT_PWM_ReadPeriod, .-RIGHT_PWM_ReadPeriod
 413              		.global	RIGHT_PWM_initVar
 414              		.bss
 415              		.set	.LANCHOR0,. + 0
 416              		.type	RIGHT_PWM_initVar, %object
 417              		.size	RIGHT_PWM_initVar, 1
 418              	RIGHT_PWM_initVar:
 419 0000 00       		.space	1
 420              		.text
 421              	.Letext0:
 422              		.file 2 "Generated_Source\\PSoC5\\cytypes.h"